(dp0
S'nbnd_cond_fi'
p1
I4
sS'absorption_extra_variables'
p2
(dp3
S'energy_resolution'
p4
F0.15
ssS'dft_flavor'
p5
S'abinit'
p6
sS'mpirun'
p7
g7
sS'nband'
p8
I9
sS'prefix'
p9
S'GaAs'
p10
sS'ecuteps'
p11
F10.0
sS'kernel_extra_lines'
p12
(lp13
S'use_symmetries_coarse_grid'
p14
aS'screening_semiconductor'
p15
asS'ibnd_max'
p16
I8
sS'rhog_flag'
p17
I01
sS'absorption_extra_lines'
p18
(lp19
g14
aS'no_symmetries_fine_grid'
p20
aS'no_symmetries_shifted_grid'
p21
ag15
aS'use_velocity'
p22
aS'gaussian_broadening'
p23
aS'eqp_co_corrections'
p24
asS'ngkpt'
p25
(lp26
I2
aI2
aI2
asS'vxc_fname'
p27
S'33-BSE/01-Density/out_data/odat_VXC'
p28
sS'nbnd_val_fi'
p29
I4
sS'ecut'
p30
F5.0
sS'pseudos'
p31
(lp32
S'31-Ga.pspnc'
p33
aS'33-As.pspnc'
p34
asS'nproc_per_node'
p35
I2
sS'pseudo_dir'
p36
S'../../Data/Pseudos'
p37
sS'nbnd_cond_co'
p38
I4
sS'nproc'
p39
I2
sS'nbnd_cond'
p40
I4
sS'nproc_flag'
p41
S'-n'
p42
sS'structure'
p43
ccopy_reg
_reconstructor
p44
(cpymatgen.core.structure
Structure
p45
c__builtin__
object
p46
Ntp47
Rp48
(dp49
S'_sites'
p50
(lp51
g44
(cpymatgen.core.sites
PeriodicSite
p52
g46
Ntp53
Rp54
(dp55
S'_fcoords'
p56
cnumpy.core.multiarray
_reconstruct
p57
(cnumpy
ndarray
p58
(I0
tp59
S'b'
p60
tp61
Rp62
(I1
(I3
tp63
cnumpy
dtype
p64
(S'f8'
p65
I0
I1
tp66
Rp67
(I3
S'<'
p68
NNNI-1
I-1
I0
tp69
bI00
S'\x00\x00\x00\x00\x00\x00\x00\x00\x00\x00\x00\x00\x00\x00\x00\x00\x00\x00\x00\x00\x00\x00\x00\x00'
p70
tp71
bsS'_species'
p72
g44
(cpymatgen.core.composition
Composition
p73
g46
Ntp74
Rp75
(dp76
S'_elmap'
p77
(dp78
g44
(cpymatgen.core.periodic_table
Element
p79
g46
Ntp80
Rp81
(dp82
S'superconduction_temperature'
p83
V1.083 K
p84
sS'density_of_solid'
p85
V5904 kg m<sup>-3</sup>
p86
sS'molar_volume'
p87
V11.80 cm<sup>3</sup>
p88
sS'bulk_modulus'
p89
NsS'electronic_structure'
p90
V[Ar].3d<sup>10</sup>.4s<sup>2</sup>.4p<sup>1</sup>
p91
sS'critical_temperature'
p92
NsS'melting_point'
p93
V302.91 K
p94
sS'mendeleev_no'
p95
I81
sS'brinell_hardness'
p96
V60 MN m<sup>-2</sup>
p97
sS'_z'
p98
I31
sS'_x'
p99
F1.81
sS'poissons_ratio'
p100
NsS'atomic_radius_calculated'
p101
F1.36
sS'atomic_mass'
p102
g44
(cpymatgen.core.units
FloatWithUnit
p103
c__builtin__
float
p104
F69.723
tp105
Rp106
(dp107
S'_unit'
p108
g44
(cpymatgen.core.units
Unit
p109
g46
Ntp110
Rp111
(dp112
g108
ccollections
defaultdict
p113
(c__builtin__
int
p114
tp115
Rp116
Vamu
p117
I1
ssbsS'_unit_type'
p118
Vmass
p119
sVval
p120
F69.723
sbsS'reflectivity'
p121
NsS'electrical_resistivity'
p122
Vabout  14 10<sup>-8</sup> &Omega; m
p123
sS'liquid_range'
p124
V2174.09 K
p125
sS'rigidity_modulus'
p126
NsS'_symbol'
p127
VGa
p128
sS'van_der_waals_radius'
p129
F1.87
sS'_data'
p130
(dp131
VElectrical resistivity
p132
g123
sVElectronic structure
p133
g91
sVVelocity of sound
p134
V2740 m s<sup>-1</sup>
p135
sVOxidation states
p136
(lp137
I1
aI2
aI3
asVReflectivity
p138
Vno data %
p139
sVPoissons ratio
p140
Vno data
p141
sVMolar volume
p142
g88
sVVan der waals radius
p143
F1.87
sVX
p144
F1.81
sVName
p145
VGallium
p146
sVBulk modulus
p147
Vno data GPa
p148
sVMineral hardness
p149
V1.5
p150
sVAtomic mass
p151
F69.723
sVAtomic no
p152
I31
sVBoiling point
p153
V2477 K
p154
sVCommon oxidation states
p155
(lp156
I3
asVBrinell hardness
p157
g97
sVDensity of solid
p158
g86
sVCritical temperature
p159
Vno data K
p160
sVMelting point
p161
g94
sVMendeleev no
p162
I81
sVCoefficient of linear thermal expansion
p163
V120 x10<sup>-6</sup>K<sup>-1</sup>
p164
sVYoungs modulus
p165
Vno data GPa
p166
sVRigidity modulus
p167
Vno data GPa
p168
sVThermal conductivity
p169
V29 W m<sup>-1</sup> K<sup>-1</sup>
p170
sVLiquid range
p171
g125
sVAtomic radius calculated
p172
F1.36
sVVickers hardness
p173
Vno data MN m<sup>-2</sup>
p174
sVSuperconduction temperature
p175
g84
sVRefractive index
p176
Vno data
p177
sVIonic radii
p178
(dp179
V3
p180
F0.76
ssVAtomic radius
p181
F1.3
ssS'youngs_modulus'
p182
NsS'name'
p183
g146
sS'boiling_point'
p184
g154
sS'thermal_conductivity'
p185
g170
sS'velocity_of_sound'
p186
g135
sS'atomic_radius'
p187
g44
(g103
g104
F1.3
tp188
Rp189
(dp190
g108
g44
(g109
g46
Ntp191
Rp192
(dp193
g108
g113
(g114
tp194
Rp195
Vang
p196
I1
ssbsg118
Vlength
p197
sg120
F1.3
sbsS'mineral_hardness'
p198
g150
sS'vickers_hardness'
p199
NsS'refractive_index'
p200
NsS'coefficient_of_linear_thermal_expansion'
p201
g164
sbI1
ssS'allow_negative'
p202
I00
sS'_natoms'
p203
I1
sbsS'_lattice'
p204
g44
(cpymatgen.core.lattice
Lattice
p205
g46
Ntp206
Rp207
(dp208
S'_metric_tensor'
p209
NsS'_matrix'
p210
g57
(g58
(I0
tp211
g60
tp212
Rp213
(I1
(I3
I3
tp214
g67
I00
S'\x00\x00\x00\x00\x00\x00\x00\x00w\xbe\x9f\x1a/\x9d\x06@w\xbe\x9f\x1a/\x9d\x06@w\xbe\x9f\x1a/\x9d\x06@\x00\x00\x00\x00\x00\x00\x00\x00w\xbe\x9f\x1a/\x9d\x06@w\xbe\x9f\x1a/\x9d\x06@w\xbe\x9f\x1a/\x9d\x06@\x00\x00\x00\x00\x00\x00\x00\x00'
p215
tp216
bsS'_angles'
p217
g57
(g58
(I0
tp218
g60
tp219
Rp220
(I1
(I3
tp221
g67
I00
S'\xff\xff\xff\xff\xff\xffM@\xff\xff\xff\xff\xff\xffM@\xff\xff\xff\xff\xff\xffM@'
p222
tp223
bsS'_lengths'
p224
g57
(g58
(I0
tp225
g60
tp226
Rp227
(I1
(I3
tp228
g67
I00
S'\xb2\xea\xb4|$\xfb\x0f@\xb2\xea\xb4|$\xfb\x0f@\xb2\xea\xb4|$\xfb\x0f@'
p229
tp230
bsS'_inv_matrix'
p231
NsbsS'_coords'
p232
g57
(g58
(I0
tp233
g60
tp234
Rp235
(I1
(I3
tp236
g67
I00
S'\x00\x00\x00\x00\x00\x00\x00\x00\x00\x00\x00\x00\x00\x00\x00\x00\x00\x00\x00\x00\x00\x00\x00\x00'
p237
tp238
bsS'_properties'
p239
(dp240
sS'_is_ordered'
p241
I01
sbag44
(g52
g46
Ntp242
Rp243
(dp244
g56
g57
(g58
(I0
tp245
g60
tp246
Rp247
(I1
(I3
tp248
g67
I00
S'\x00\x00\x00\x00\x00\x00\xd0?\x00\x00\x00\x00\x00\x00\xd0?\x00\x00\x00\x00\x00\x00\xd0?'
p249
tp250
bsg72
g44
(g73
g46
Ntp251
Rp252
(dp253
g77
(dp254
g44
(g79
g46
Ntp255
Rp256
(dp257
S'superconduction_temperature'
p258
NsS'density_of_solid'
p259
V5727 kg m<sup>-3</sup>
p260
sS'molar_volume'
p261
V12.95 cm<sup>3</sup>
p262
sS'bulk_modulus'
p263
V22 GPa
p264
sS'electronic_structure'
p265
V[Ar].3d<sup>10</sup>.4s<sup>2</sup>.4p<sup>3</sup>
p266
sS'critical_temperature'
p267
V1700 K
p268
sS'melting_point'
p269
V1090 K
p270
sS'mendeleev_no'
p271
I89
sS'brinell_hardness'
p272
V1440 MN m<sup>-2</sup>
p273
sg98
I33
sg99
F2.18
sS'poissons_ratio'
p274
NsS'atomic_radius_calculated'
p275
F1.14
sg102
g44
(g103
g104
F74.9216
tp276
Rp277
(dp278
g108
g44
(g109
g46
Ntp279
Rp280
(dp281
g108
g113
(g114
tp282
Rp283
g117
I1
ssbsg118
g119
sg120
F74.9216
sbsS'reflectivity'
p284
NsS'electrical_resistivity'
p285
V33 10<sup>-8</sup> &Omega; m
p286
sS'liquid_range'
p287
V203 K
p288
sS'rigidity_modulus'
p289
Nsg127
VAs
p290
sS'van_der_waals_radius'
p291
F1.85
sg130
(dp292
VElectrical resistivity
p293
g286
sVElectronic structure
p294
g266
sVVelocity of sound
p295
Vno data m s<sup>-1</sup>
p296
sVOxidation states
p297
(lp298
I-3
aI2
aI3
aI5
asVReflectivity
p299
Vno data %
p300
sVPoissons ratio
p301
Vno data
p302
sVMolar volume
p303
g262
sVVan der waals radius
p304
F1.85
sg144
F2.18
sVName
p305
VArsenic
p306
sVBulk modulus
p307
g264
sVMineral hardness
p308
V3.5
p309
sVAtomic mass
p310
F74.9216
sVAtomic no
p311
I33
sVBoiling point
p312
V887 K
p313
sVCommon oxidation states
p314
(lp315
I-3
aI3
aI5
asVBrinell hardness
p316
g273
sVDensity of solid
p317
g260
sVCritical temperature
p318
g268
sVMelting point
p319
g270
sVMendeleev no
p320
I89
sVCoefficient of linear thermal expansion
p321
Vno data x10<sup>-6</sup>K<sup>-1</sup>
p322
sVYoungs modulus
p323
V8 GPa
p324
sVRigidity modulus
p325
Vno data GPa
p326
sVThermal conductivity
p327
V50 W m<sup>-1</sup> K<sup>-1</sup>
p328
sVLiquid range
p329
g288
sVAtomic radius calculated
p330
F1.14
sVVickers hardness
p331
Vno data MN m<sup>-2</sup>
p332
sVSuperconduction temperature
p333
Vno data K
p334
sVRefractive index
p335
V1.001552
p336
sVIonic radii
p337
(dp338
g180
F0.72
sV5
p339
F0.6
ssVAtomic radius
p340
F1.15
ssS'youngs_modulus'
p341
g324
sS'name'
p342
g306
sS'boiling_point'
p343
g313
sS'thermal_conductivity'
p344
g328
sS'velocity_of_sound'
p345
Nsg187
g44
(g103
g104
F1.15
tp346
Rp347
(dp348
g108
g44
(g109
g46
Ntp349
Rp350
(dp351
g108
g113
(g114
tp352
Rp353
g196
I1
ssbsg118
g197
sg120
F1.15
sbsS'mineral_hardness'
p354
g309
sS'vickers_hardness'
p355
NsS'refractive_index'
p356
g336
sS'coefficient_of_linear_thermal_expansion'
p357
NsbI1
ssg202
I00
sg203
I1
sbsg204
g207
sg232
g57
(g58
(I0
tp358
g60
tp359
Rp360
(I1
(I3
tp361
g67
I00
S'w\xbe\x9f\x1a/\x9d\xf6?w\xbe\x9f\x1a/\x9d\xf6?w\xbe\x9f\x1a/\x9d\xf6?'
p362
tp363
bsg239
(dp364
sg241
I01
sbasg204
g207
sbsS'charge_density_fname'
p365
S'33-BSE/01-Density/out_data/odat_DEN'
p366
sS'ibnd_min'
p367
I1
sS'vxcg_flag'
p368
I01
sS'sigma_extra_lines'
p369
(lp370
g15
asS'nbnd_val'
p371
I4
sS'nbnd_val_co'
p372
I4
sS'nproc_per_node_flag'
p373
S'--npernode'
p374
s.