(dp0
S'dft_flavor'
p1
S'abinit'
p2
sS'mpirun'
p3
g3
sS'nband'
p4
NsS'qshift'
p5
(lp6
F0.001
aF0.0
aF0.0
asS'prefix'
p7
S'GaAs'
p8
sS'ecuteps'
p9
F10.0
sS'ibnd_max'
p10
I8
sS'ngkpt'
p11
(lp12
I2
aI2
aI2
asS'kshift'
p13
(lp14
F0.5
aF0.5
aF0.5
asS'vxc_fname'
p15
S'32-GW/01-Density/out_data/odat_VXC'
p16
sS'epsilon_extra_lines'
p17
(lp18
sS'nproc_per_node_flag'
p19
S'--npernode'
p20
sS'ecut'
p21
F5.0
sS'pseudos'
p22
(lp23
S'31-Ga.pspnc'
p24
aS'33-As.pspnc'
p25
asS'nproc_per_node'
p26
I2
sS'pseudo_dir'
p27
S'../../Data/Pseudos'
p28
sS'nproc'
p29
I2
sS'nproc_flag'
p30
S'-n'
p31
sS'structure'
p32
ccopy_reg
_reconstructor
p33
(cpymatgen.core.structure
Structure
p34
c__builtin__
object
p35
Ntp36
Rp37
(dp38
S'_sites'
p39
(lp40
g33
(cpymatgen.core.sites
PeriodicSite
p41
g35
Ntp42
Rp43
(dp44
S'_fcoords'
p45
cnumpy.core.multiarray
_reconstruct
p46
(cnumpy
ndarray
p47
(I0
tp48
S'b'
p49
tp50
Rp51
(I1
(I3
tp52
cnumpy
dtype
p53
(S'f8'
p54
I0
I1
tp55
Rp56
(I3
S'<'
p57
NNNI-1
I-1
I0
tp58
bI00
S'\x00\x00\x00\x00\x00\x00\x00\x00\x00\x00\x00\x00\x00\x00\x00\x00\x00\x00\x00\x00\x00\x00\x00\x00'
p59
tp60
bsS'_species'
p61
g33
(cpymatgen.core.composition
Composition
p62
g35
Ntp63
Rp64
(dp65
S'_elmap'
p66
(dp67
g33
(cpymatgen.core.periodic_table
Element
p68
g35
Ntp69
Rp70
(dp71
S'superconduction_temperature'
p72
V1.083 K
p73
sS'density_of_solid'
p74
V5904 kg m<sup>-3</sup>
p75
sS'molar_volume'
p76
V11.80 cm<sup>3</sup>
p77
sS'bulk_modulus'
p78
NsS'electronic_structure'
p79
V[Ar].3d<sup>10</sup>.4s<sup>2</sup>.4p<sup>1</sup>
p80
sS'critical_temperature'
p81
NsS'melting_point'
p82
V302.91 K
p83
sS'mendeleev_no'
p84
I81
sS'brinell_hardness'
p85
V60 MN m<sup>-2</sup>
p86
sS'_z'
p87
I31
sS'_x'
p88
F1.81
sS'poissons_ratio'
p89
NsS'atomic_radius_calculated'
p90
F1.36
sS'atomic_mass'
p91
g33
(cpymatgen.core.units
FloatWithUnit
p92
c__builtin__
float
p93
F69.723
tp94
Rp95
(dp96
S'_unit'
p97
g33
(cpymatgen.core.units
Unit
p98
g35
Ntp99
Rp100
(dp101
g97
ccollections
defaultdict
p102
(c__builtin__
int
p103
tp104
Rp105
Vamu
p106
I1
ssbsS'_unit_type'
p107
Vmass
p108
sVval
p109
F69.723
sbsS'reflectivity'
p110
NsS'electrical_resistivity'
p111
Vabout  14 10<sup>-8</sup> &Omega; m
p112
sS'liquid_range'
p113
V2174.09 K
p114
sS'rigidity_modulus'
p115
NsS'_symbol'
p116
VGa
p117
sS'van_der_waals_radius'
p118
F1.87
sS'_data'
p119
(dp120
VElectrical resistivity
p121
g112
sVElectronic structure
p122
g80
sVVelocity of sound
p123
V2740 m s<sup>-1</sup>
p124
sVOxidation states
p125
(lp126
I1
aI2
aI3
asVReflectivity
p127
Vno data %
p128
sVPoissons ratio
p129
Vno data
p130
sVMolar volume
p131
g77
sVVan der waals radius
p132
F1.87
sVX
p133
F1.81
sVName
p134
VGallium
p135
sVBulk modulus
p136
Vno data GPa
p137
sVMineral hardness
p138
V1.5
p139
sVAtomic mass
p140
F69.723
sVAtomic no
p141
I31
sVBoiling point
p142
V2477 K
p143
sVCommon oxidation states
p144
(lp145
I3
asVBrinell hardness
p146
g86
sVDensity of solid
p147
g75
sVCritical temperature
p148
Vno data K
p149
sVMelting point
p150
g83
sVMendeleev no
p151
I81
sVCoefficient of linear thermal expansion
p152
V120 x10<sup>-6</sup>K<sup>-1</sup>
p153
sVYoungs modulus
p154
Vno data GPa
p155
sVRigidity modulus
p156
Vno data GPa
p157
sVThermal conductivity
p158
V29 W m<sup>-1</sup> K<sup>-1</sup>
p159
sVLiquid range
p160
g114
sVAtomic radius calculated
p161
F1.36
sVVickers hardness
p162
Vno data MN m<sup>-2</sup>
p163
sVSuperconduction temperature
p164
g73
sVRefractive index
p165
Vno data
p166
sVIonic radii
p167
(dp168
V3
p169
F0.76
ssVAtomic radius
p170
F1.3
ssS'youngs_modulus'
p171
NsS'name'
p172
g135
sS'boiling_point'
p173
g143
sS'thermal_conductivity'
p174
g159
sS'velocity_of_sound'
p175
g124
sS'atomic_radius'
p176
g33
(g92
g93
F1.3
tp177
Rp178
(dp179
g97
g33
(g98
g35
Ntp180
Rp181
(dp182
g97
g102
(g103
tp183
Rp184
Vang
p185
I1
ssbsg107
Vlength
p186
sg109
F1.3
sbsS'mineral_hardness'
p187
g139
sS'vickers_hardness'
p188
NsS'refractive_index'
p189
NsS'coefficient_of_linear_thermal_expansion'
p190
g153
sbI1
ssS'allow_negative'
p191
I00
sS'_natoms'
p192
I1
sbsS'_lattice'
p193
g33
(cpymatgen.core.lattice
Lattice
p194
g35
Ntp195
Rp196
(dp197
S'_metric_tensor'
p198
NsS'_matrix'
p199
g46
(g47
(I0
tp200
g49
tp201
Rp202
(I1
(I3
I3
tp203
g56
I00
S'\x00\x00\x00\x00\x00\x00\x00\x00w\xbe\x9f\x1a/\x9d\x06@w\xbe\x9f\x1a/\x9d\x06@w\xbe\x9f\x1a/\x9d\x06@\x00\x00\x00\x00\x00\x00\x00\x00w\xbe\x9f\x1a/\x9d\x06@w\xbe\x9f\x1a/\x9d\x06@w\xbe\x9f\x1a/\x9d\x06@\x00\x00\x00\x00\x00\x00\x00\x00'
p204
tp205
bsS'_angles'
p206
g46
(g47
(I0
tp207
g49
tp208
Rp209
(I1
(I3
tp210
g56
I00
S'\xff\xff\xff\xff\xff\xffM@\xff\xff\xff\xff\xff\xffM@\xff\xff\xff\xff\xff\xffM@'
p211
tp212
bsS'_lengths'
p213
g46
(g47
(I0
tp214
g49
tp215
Rp216
(I1
(I3
tp217
g56
I00
S'\xb2\xea\xb4|$\xfb\x0f@\xb2\xea\xb4|$\xfb\x0f@\xb2\xea\xb4|$\xfb\x0f@'
p218
tp219
bsS'_inv_matrix'
p220
NsbsS'_coords'
p221
g46
(g47
(I0
tp222
g49
tp223
Rp224
(I1
(I3
tp225
g56
I00
S'\x00\x00\x00\x00\x00\x00\x00\x00\x00\x00\x00\x00\x00\x00\x00\x00\x00\x00\x00\x00\x00\x00\x00\x00'
p226
tp227
bsS'_properties'
p228
(dp229
sS'_is_ordered'
p230
I01
sbag33
(g41
g35
Ntp231
Rp232
(dp233
g45
g46
(g47
(I0
tp234
g49
tp235
Rp236
(I1
(I3
tp237
g56
I00
S'\x00\x00\x00\x00\x00\x00\xd0?\x00\x00\x00\x00\x00\x00\xd0?\x00\x00\x00\x00\x00\x00\xd0?'
p238
tp239
bsg61
g33
(g62
g35
Ntp240
Rp241
(dp242
g66
(dp243
g33
(g68
g35
Ntp244
Rp245
(dp246
S'superconduction_temperature'
p247
NsS'density_of_solid'
p248
V5727 kg m<sup>-3</sup>
p249
sS'molar_volume'
p250
V12.95 cm<sup>3</sup>
p251
sS'bulk_modulus'
p252
V22 GPa
p253
sS'electronic_structure'
p254
V[Ar].3d<sup>10</sup>.4s<sup>2</sup>.4p<sup>3</sup>
p255
sS'critical_temperature'
p256
V1700 K
p257
sS'melting_point'
p258
V1090 K
p259
sS'mendeleev_no'
p260
I89
sS'brinell_hardness'
p261
V1440 MN m<sup>-2</sup>
p262
sg87
I33
sg88
F2.18
sS'poissons_ratio'
p263
NsS'atomic_radius_calculated'
p264
F1.14
sg91
g33
(g92
g93
F74.9216
tp265
Rp266
(dp267
g97
g33
(g98
g35
Ntp268
Rp269
(dp270
g97
g102
(g103
tp271
Rp272
g106
I1
ssbsg107
g108
sg109
F74.9216
sbsS'reflectivity'
p273
NsS'electrical_resistivity'
p274
V33 10<sup>-8</sup> &Omega; m
p275
sS'liquid_range'
p276
V203 K
p277
sS'rigidity_modulus'
p278
Nsg116
VAs
p279
sS'van_der_waals_radius'
p280
F1.85
sg119
(dp281
VElectrical resistivity
p282
g275
sVElectronic structure
p283
g255
sVVelocity of sound
p284
Vno data m s<sup>-1</sup>
p285
sVOxidation states
p286
(lp287
I-3
aI2
aI3
aI5
asVReflectivity
p288
Vno data %
p289
sVPoissons ratio
p290
Vno data
p291
sVMolar volume
p292
g251
sVVan der waals radius
p293
F1.85
sg133
F2.18
sVName
p294
VArsenic
p295
sVBulk modulus
p296
g253
sVMineral hardness
p297
V3.5
p298
sVAtomic mass
p299
F74.9216
sVAtomic no
p300
I33
sVBoiling point
p301
V887 K
p302
sVCommon oxidation states
p303
(lp304
I-3
aI3
aI5
asVBrinell hardness
p305
g262
sVDensity of solid
p306
g249
sVCritical temperature
p307
g257
sVMelting point
p308
g259
sVMendeleev no
p309
I89
sVCoefficient of linear thermal expansion
p310
Vno data x10<sup>-6</sup>K<sup>-1</sup>
p311
sVYoungs modulus
p312
V8 GPa
p313
sVRigidity modulus
p314
Vno data GPa
p315
sVThermal conductivity
p316
V50 W m<sup>-1</sup> K<sup>-1</sup>
p317
sVLiquid range
p318
g277
sVAtomic radius calculated
p319
F1.14
sVVickers hardness
p320
Vno data MN m<sup>-2</sup>
p321
sVSuperconduction temperature
p322
Vno data K
p323
sVRefractive index
p324
V1.001552
p325
sVIonic radii
p326
(dp327
g169
F0.72
sV5
p328
F0.6
ssVAtomic radius
p329
F1.15
ssS'youngs_modulus'
p330
g313
sS'name'
p331
g295
sS'boiling_point'
p332
g302
sS'thermal_conductivity'
p333
g317
sS'velocity_of_sound'
p334
Nsg176
g33
(g92
g93
F1.15
tp335
Rp336
(dp337
g97
g33
(g98
g35
Ntp338
Rp339
(dp340
g97
g102
(g103
tp341
Rp342
g185
I1
ssbsg107
g186
sg109
F1.15
sbsS'mineral_hardness'
p343
g298
sS'vickers_hardness'
p344
NsS'refractive_index'
p345
g325
sS'coefficient_of_linear_thermal_expansion'
p346
NsbI1
ssg191
I00
sg192
I1
sbsg193
g196
sg221
g46
(g47
(I0
tp347
g49
tp348
Rp349
(I1
(I3
tp350
g56
I00
S'w\xbe\x9f\x1a/\x9d\xf6?w\xbe\x9f\x1a/\x9d\xf6?w\xbe\x9f\x1a/\x9d\xf6?'
p351
tp352
bsg228
(dp353
sg230
I01
sbasg193
g196
sbsS'charge_density_fname'
p354
S'32-GW/01-Density/out_data/odat_DEN'
p355
sS'ibnd_min'
p356
I1
sS'epsilon_extra_variables'
p357
(dp358
sS'sigma_extra_lines'
p359
(lp360
S'screening_semiconductor'
p361
asS'sigma_extra_variables'
p362
(dp363
s.