(dp0
S'ecut'
p1
F5.0
sS'pseudos'
p2
(lp3
S'31-Ga.pspnc'
p4
aS'33-As.pspnc'
p5
asS'nproc_per_node'
p6
I1
sS'pseudo_dir'
p7
S'../../Data/Pseudos'
p8
sS'mpirun'
p9
g9
sS'qshift'
p10
(lp11
F0.001
aF0.0
aF0.0
asS'ngkpt'
p12
(lp13
I2
aI2
aI2
asS'prefix'
p14
S'GaAs'
p15
sS'nproc_per_node_flag'
p16
S'--npernode'
p17
sS'nproc'
p18
I1
sS'kshift'
p19
(lp20
F0.5
aF0.5
aF0.5
asS'nproc_flag'
p21
S'-n'
p22
sS'structure'
p23
ccopy_reg
_reconstructor
p24
(cpymatgen.core.structure
Structure
p25
c__builtin__
object
p26
Ntp27
Rp28
(dp29
S'_sites'
p30
(lp31
g24
(cpymatgen.core.sites
PeriodicSite
p32
g26
Ntp33
Rp34
(dp35
S'_fcoords'
p36
cnumpy.core.multiarray
_reconstruct
p37
(cnumpy
ndarray
p38
(I0
tp39
S'b'
p40
tp41
Rp42
(I1
(I3
tp43
cnumpy
dtype
p44
(S'f8'
p45
I0
I1
tp46
Rp47
(I3
S'<'
p48
NNNI-1
I-1
I0
tp49
bI00
S'\x00\x00\x00\x00\x00\x00\x00\x00\x00\x00\x00\x00\x00\x00\x00\x00\x00\x00\x00\x00\x00\x00\x00\x00'
p50
tp51
bsS'_species'
p52
g24
(cpymatgen.core.composition
Composition
p53
g26
Ntp54
Rp55
(dp56
S'_elmap'
p57
(dp58
g24
(cpymatgen.core.periodic_table
Element
p59
g26
Ntp60
Rp61
(dp62
S'superconduction_temperature'
p63
V1.083 K
p64
sS'density_of_solid'
p65
V5904 kg m<sup>-3</sup>
p66
sS'molar_volume'
p67
V11.80 cm<sup>3</sup>
p68
sS'bulk_modulus'
p69
NsS'electronic_structure'
p70
V[Ar].3d<sup>10</sup>.4s<sup>2</sup>.4p<sup>1</sup>
p71
sS'critical_temperature'
p72
NsS'melting_point'
p73
V302.91 K
p74
sS'mendeleev_no'
p75
I81
sS'brinell_hardness'
p76
V60 MN m<sup>-2</sup>
p77
sS'_z'
p78
I31
sS'_x'
p79
F1.81
sS'poissons_ratio'
p80
NsS'atomic_radius_calculated'
p81
F1.36
sS'atomic_mass'
p82
g24
(cpymatgen.core.units
FloatWithUnit
p83
c__builtin__
float
p84
F69.723
tp85
Rp86
(dp87
S'_unit'
p88
g24
(cpymatgen.core.units
Unit
p89
g26
Ntp90
Rp91
(dp92
g88
ccollections
defaultdict
p93
(c__builtin__
int
p94
tp95
Rp96
Vamu
p97
I1
ssbsS'_unit_type'
p98
Vmass
p99
sVval
p100
F69.723
sbsS'reflectivity'
p101
NsS'electrical_resistivity'
p102
Vabout  14 10<sup>-8</sup> &Omega; m
p103
sS'liquid_range'
p104
V2174.09 K
p105
sS'rigidity_modulus'
p106
NsS'_symbol'
p107
VGa
p108
sS'van_der_waals_radius'
p109
F1.87
sS'_data'
p110
(dp111
VElectrical resistivity
p112
g103
sVElectronic structure
p113
g71
sVVelocity of sound
p114
V2740 m s<sup>-1</sup>
p115
sVOxidation states
p116
(lp117
I1
aI2
aI3
asVReflectivity
p118
Vno data %
p119
sVPoissons ratio
p120
Vno data
p121
sVMolar volume
p122
g68
sVVan der waals radius
p123
F1.87
sVX
p124
F1.81
sVName
p125
VGallium
p126
sVBulk modulus
p127
Vno data GPa
p128
sVMineral hardness
p129
V1.5
p130
sVAtomic mass
p131
F69.723
sVAtomic no
p132
I31
sVBoiling point
p133
V2477 K
p134
sVCommon oxidation states
p135
(lp136
I3
asVBrinell hardness
p137
g77
sVDensity of solid
p138
g66
sVCritical temperature
p139
Vno data K
p140
sVMelting point
p141
g74
sVMendeleev no
p142
I81
sVCoefficient of linear thermal expansion
p143
V120 x10<sup>-6</sup>K<sup>-1</sup>
p144
sVYoungs modulus
p145
Vno data GPa
p146
sVRigidity modulus
p147
Vno data GPa
p148
sVThermal conductivity
p149
V29 W m<sup>-1</sup> K<sup>-1</sup>
p150
sVLiquid range
p151
g105
sVAtomic radius calculated
p152
F1.36
sVVickers hardness
p153
Vno data MN m<sup>-2</sup>
p154
sVSuperconduction temperature
p155
g64
sVRefractive index
p156
Vno data
p157
sVIonic radii
p158
(dp159
V3
p160
F0.76
ssVAtomic radius
p161
F1.3
ssS'youngs_modulus'
p162
NsS'name'
p163
g126
sS'boiling_point'
p164
g134
sS'thermal_conductivity'
p165
g150
sS'velocity_of_sound'
p166
g115
sS'atomic_radius'
p167
g24
(g83
g84
F1.3
tp168
Rp169
(dp170
g88
g24
(g89
g26
Ntp171
Rp172
(dp173
g88
g93
(g94
tp174
Rp175
Vang
p176
I1
ssbsg98
Vlength
p177
sg100
F1.3
sbsS'mineral_hardness'
p178
g130
sS'vickers_hardness'
p179
NsS'refractive_index'
p180
NsS'coefficient_of_linear_thermal_expansion'
p181
g144
sbI1
ssS'allow_negative'
p182
I00
sS'_natoms'
p183
I1
sbsS'_lattice'
p184
g24
(cpymatgen.core.lattice
Lattice
p185
g26
Ntp186
Rp187
(dp188
S'_metric_tensor'
p189
NsS'_matrix'
p190
g37
(g38
(I0
tp191
g40
tp192
Rp193
(I1
(I3
I3
tp194
g47
I00
S'\x00\x00\x00\x00\x00\x00\x00\x00w\xbe\x9f\x1a/\x9d\x06@w\xbe\x9f\x1a/\x9d\x06@w\xbe\x9f\x1a/\x9d\x06@\x00\x00\x00\x00\x00\x00\x00\x00w\xbe\x9f\x1a/\x9d\x06@w\xbe\x9f\x1a/\x9d\x06@w\xbe\x9f\x1a/\x9d\x06@\x00\x00\x00\x00\x00\x00\x00\x00'
p195
tp196
bsS'_angles'
p197
g37
(g38
(I0
tp198
g40
tp199
Rp200
(I1
(I3
tp201
g47
I00
S'\xff\xff\xff\xff\xff\xffM@\xff\xff\xff\xff\xff\xffM@\xff\xff\xff\xff\xff\xffM@'
p202
tp203
bsS'_lengths'
p204
g37
(g38
(I0
tp205
g40
tp206
Rp207
(I1
(I3
tp208
g47
I00
S'\xb2\xea\xb4|$\xfb\x0f@\xb2\xea\xb4|$\xfb\x0f@\xb2\xea\xb4|$\xfb\x0f@'
p209
tp210
bsS'_inv_matrix'
p211
NsbsS'_coords'
p212
g37
(g38
(I0
tp213
g40
tp214
Rp215
(I1
(I3
tp216
g47
I00
S'\x00\x00\x00\x00\x00\x00\x00\x00\x00\x00\x00\x00\x00\x00\x00\x00\x00\x00\x00\x00\x00\x00\x00\x00'
p217
tp218
bsS'_properties'
p219
(dp220
sS'_is_ordered'
p221
I01
sbag24
(g32
g26
Ntp222
Rp223
(dp224
g36
g37
(g38
(I0
tp225
g40
tp226
Rp227
(I1
(I3
tp228
g47
I00
S'\x00\x00\x00\x00\x00\x00\xd0?\x00\x00\x00\x00\x00\x00\xd0?\x00\x00\x00\x00\x00\x00\xd0?'
p229
tp230
bsg52
g24
(g53
g26
Ntp231
Rp232
(dp233
g57
(dp234
g24
(g59
g26
Ntp235
Rp236
(dp237
S'superconduction_temperature'
p238
NsS'density_of_solid'
p239
V5727 kg m<sup>-3</sup>
p240
sS'molar_volume'
p241
V12.95 cm<sup>3</sup>
p242
sS'bulk_modulus'
p243
V22 GPa
p244
sS'electronic_structure'
p245
V[Ar].3d<sup>10</sup>.4s<sup>2</sup>.4p<sup>3</sup>
p246
sS'critical_temperature'
p247
V1700 K
p248
sS'melting_point'
p249
V1090 K
p250
sS'mendeleev_no'
p251
I89
sS'brinell_hardness'
p252
V1440 MN m<sup>-2</sup>
p253
sg78
I33
sg79
F2.18
sS'poissons_ratio'
p254
NsS'atomic_radius_calculated'
p255
F1.14
sg82
g24
(g83
g84
F74.9216
tp256
Rp257
(dp258
g88
g24
(g89
g26
Ntp259
Rp260
(dp261
g88
g93
(g94
tp262
Rp263
g97
I1
ssbsg98
g99
sg100
F74.9216
sbsS'reflectivity'
p264
NsS'electrical_resistivity'
p265
V33 10<sup>-8</sup> &Omega; m
p266
sS'liquid_range'
p267
V203 K
p268
sS'rigidity_modulus'
p269
Nsg107
VAs
p270
sS'van_der_waals_radius'
p271
F1.85
sg110
(dp272
VElectrical resistivity
p273
g266
sVElectronic structure
p274
g246
sVVelocity of sound
p275
Vno data m s<sup>-1</sup>
p276
sVOxidation states
p277
(lp278
I-3
aI2
aI3
aI5
asVReflectivity
p279
Vno data %
p280
sVPoissons ratio
p281
Vno data
p282
sVMolar volume
p283
g242
sVVan der waals radius
p284
F1.85
sg124
F2.18
sVName
p285
VArsenic
p286
sVBulk modulus
p287
g244
sVMineral hardness
p288
V3.5
p289
sVAtomic mass
p290
F74.9216
sVAtomic no
p291
I33
sVBoiling point
p292
V887 K
p293
sVCommon oxidation states
p294
(lp295
I-3
aI3
aI5
asVBrinell hardness
p296
g253
sVDensity of solid
p297
g240
sVCritical temperature
p298
g248
sVMelting point
p299
g250
sVMendeleev no
p300
I89
sVCoefficient of linear thermal expansion
p301
Vno data x10<sup>-6</sup>K<sup>-1</sup>
p302
sVYoungs modulus
p303
V8 GPa
p304
sVRigidity modulus
p305
Vno data GPa
p306
sVThermal conductivity
p307
V50 W m<sup>-1</sup> K<sup>-1</sup>
p308
sVLiquid range
p309
g268
sVAtomic radius calculated
p310
F1.14
sVVickers hardness
p311
Vno data MN m<sup>-2</sup>
p312
sVSuperconduction temperature
p313
Vno data K
p314
sVRefractive index
p315
V1.001552
p316
sVIonic radii
p317
(dp318
g160
F0.72
sV5
p319
F0.6
ssVAtomic radius
p320
F1.15
ssS'youngs_modulus'
p321
g304
sS'name'
p322
g286
sS'boiling_point'
p323
g293
sS'thermal_conductivity'
p324
g308
sS'velocity_of_sound'
p325
Nsg167
g24
(g83
g84
F1.15
tp326
Rp327
(dp328
g88
g24
(g89
g26
Ntp329
Rp330
(dp331
g88
g93
(g94
tp332
Rp333
g176
I1
ssbsg98
g177
sg100
F1.15
sbsS'mineral_hardness'
p334
g289
sS'vickers_hardness'
p335
NsS'refractive_index'
p336
g316
sS'coefficient_of_linear_thermal_expansion'
p337
NsbI1
ssg182
I00
sg183
I1
sbsg184
g187
sg212
g37
(g38
(I0
tp338
g40
tp339
Rp340
(I1
(I3
tp341
g47
I00
S'w\xbe\x9f\x1a/\x9d\xf6?w\xbe\x9f\x1a/\x9d\xf6?w\xbe\x9f\x1a/\x9d\xf6?'
p342
tp343
bsg219
(dp344
sg221
I01
sbasg184
g187
sbs.