(dp0
S'dft_flavor'
p1
S'abinit'
p2
sS'mpirun'
p3
g3
sS'nband'
p4
I9
sS'prefix'
p5
S'GaAs'
p6
sS'ecuteps'
p7
F10.0
sS'ibnd_max'
p8
I8
sS'rhog_flag'
p9
I01
sS'ngkpt'
p10
(lp11
I2
aI2
aI2
asS'epsilon_extra_lines'
p12
(lp13
sS'sigma_extra_variables'
p14
(dp15
sS'nproc_per_node_flag'
p16
S'--npernode'
p17
sS'ecut'
p18
F5.0
sS'pseudos'
p19
(lp20
S'31-Ga.pspnc'
p21
aS'33-As.pspnc'
p22
asS'nproc_per_node'
p23
I2
sS'pseudo_dir'
p24
S'../../Data/Pseudos'
p25
sS'nproc'
p26
I2
sS'nproc_flag'
p27
S'-n'
p28
sS'structure'
p29
ccopy_reg
_reconstructor
p30
(cpymatgen.core.structure
Structure
p31
c__builtin__
object
p32
Ntp33
Rp34
(dp35
S'_sites'
p36
(lp37
g30
(cpymatgen.core.sites
PeriodicSite
p38
g32
Ntp39
Rp40
(dp41
S'_fcoords'
p42
cnumpy.core.multiarray
_reconstruct
p43
(cnumpy
ndarray
p44
(I0
tp45
S'b'
p46
tp47
Rp48
(I1
(I3
tp49
cnumpy
dtype
p50
(S'f8'
p51
I0
I1
tp52
Rp53
(I3
S'<'
p54
NNNI-1
I-1
I0
tp55
bI00
S'\x00\x00\x00\x00\x00\x00\x00\x00\x00\x00\x00\x00\x00\x00\x00\x00\x00\x00\x00\x00\x00\x00\x00\x00'
p56
tp57
bsS'_species'
p58
g30
(cpymatgen.core.composition
Composition
p59
g32
Ntp60
Rp61
(dp62
S'_elmap'
p63
(dp64
g30
(cpymatgen.core.periodic_table
Element
p65
g32
Ntp66
Rp67
(dp68
S'superconduction_temperature'
p69
V1.083 K
p70
sS'density_of_solid'
p71
V5904 kg m<sup>-3</sup>
p72
sS'molar_volume'
p73
V11.80 cm<sup>3</sup>
p74
sS'bulk_modulus'
p75
NsS'electronic_structure'
p76
V[Ar].3d<sup>10</sup>.4s<sup>2</sup>.4p<sup>1</sup>
p77
sS'critical_temperature'
p78
NsS'melting_point'
p79
V302.91 K
p80
sS'mendeleev_no'
p81
I81
sS'brinell_hardness'
p82
V60 MN m<sup>-2</sup>
p83
sS'_z'
p84
I31
sS'_x'
p85
F1.81
sS'poissons_ratio'
p86
NsS'atomic_radius_calculated'
p87
F1.36
sS'atomic_mass'
p88
g30
(cpymatgen.core.units
FloatWithUnit
p89
c__builtin__
float
p90
F69.723
tp91
Rp92
(dp93
S'_unit'
p94
g30
(cpymatgen.core.units
Unit
p95
g32
Ntp96
Rp97
(dp98
g94
ccollections
defaultdict
p99
(c__builtin__
int
p100
tp101
Rp102
Vamu
p103
I1
ssbsS'_unit_type'
p104
Vmass
p105
sVval
p106
F69.723
sbsS'reflectivity'
p107
NsS'electrical_resistivity'
p108
Vabout  14 10<sup>-8</sup> &Omega; m
p109
sS'liquid_range'
p110
V2174.09 K
p111
sS'rigidity_modulus'
p112
NsS'_symbol'
p113
VGa
p114
sS'van_der_waals_radius'
p115
F1.87
sS'_data'
p116
(dp117
VElectrical resistivity
p118
g109
sVElectronic structure
p119
g77
sVVelocity of sound
p120
V2740 m s<sup>-1</sup>
p121
sVOxidation states
p122
(lp123
I1
aI2
aI3
asVReflectivity
p124
Vno data %
p125
sVPoissons ratio
p126
Vno data
p127
sVMolar volume
p128
g74
sVVan der waals radius
p129
F1.87
sVX
p130
F1.81
sVName
p131
VGallium
p132
sVBulk modulus
p133
Vno data GPa
p134
sVMineral hardness
p135
V1.5
p136
sVAtomic mass
p137
F69.723
sVAtomic no
p138
I31
sVBoiling point
p139
V2477 K
p140
sVCommon oxidation states
p141
(lp142
I3
asVBrinell hardness
p143
g83
sVDensity of solid
p144
g72
sVCritical temperature
p145
Vno data K
p146
sVMelting point
p147
g80
sVMendeleev no
p148
I81
sVCoefficient of linear thermal expansion
p149
V120 x10<sup>-6</sup>K<sup>-1</sup>
p150
sVYoungs modulus
p151
Vno data GPa
p152
sVRigidity modulus
p153
Vno data GPa
p154
sVThermal conductivity
p155
V29 W m<sup>-1</sup> K<sup>-1</sup>
p156
sVLiquid range
p157
g111
sVAtomic radius calculated
p158
F1.36
sVVickers hardness
p159
Vno data MN m<sup>-2</sup>
p160
sVSuperconduction temperature
p161
g70
sVRefractive index
p162
Vno data
p163
sVIonic radii
p164
(dp165
V3
p166
F0.76
ssVAtomic radius
p167
F1.3
ssS'youngs_modulus'
p168
NsS'name'
p169
g132
sS'boiling_point'
p170
g140
sS'thermal_conductivity'
p171
g156
sS'velocity_of_sound'
p172
g121
sS'atomic_radius'
p173
g30
(g89
g90
F1.3
tp174
Rp175
(dp176
g94
g30
(g95
g32
Ntp177
Rp178
(dp179
g94
g99
(g100
tp180
Rp181
Vang
p182
I1
ssbsg104
Vlength
p183
sg106
F1.3
sbsS'mineral_hardness'
p184
g136
sS'vickers_hardness'
p185
NsS'refractive_index'
p186
NsS'coefficient_of_linear_thermal_expansion'
p187
g150
sbI1
ssS'allow_negative'
p188
I00
sS'_natoms'
p189
I1
sbsS'_lattice'
p190
g30
(cpymatgen.core.lattice
Lattice
p191
g32
Ntp192
Rp193
(dp194
S'_metric_tensor'
p195
NsS'_matrix'
p196
g43
(g44
(I0
tp197
g46
tp198
Rp199
(I1
(I3
I3
tp200
g53
I00
S'\x00\x00\x00\x00\x00\x00\x00\x00w\xbe\x9f\x1a/\x9d\x06@w\xbe\x9f\x1a/\x9d\x06@w\xbe\x9f\x1a/\x9d\x06@\x00\x00\x00\x00\x00\x00\x00\x00w\xbe\x9f\x1a/\x9d\x06@w\xbe\x9f\x1a/\x9d\x06@w\xbe\x9f\x1a/\x9d\x06@\x00\x00\x00\x00\x00\x00\x00\x00'
p201
tp202
bsS'_angles'
p203
g43
(g44
(I0
tp204
g46
tp205
Rp206
(I1
(I3
tp207
g53
I00
S'\xff\xff\xff\xff\xff\xffM@\xff\xff\xff\xff\xff\xffM@\xff\xff\xff\xff\xff\xffM@'
p208
tp209
bsS'_lengths'
p210
g43
(g44
(I0
tp211
g46
tp212
Rp213
(I1
(I3
tp214
g53
I00
S'\xb2\xea\xb4|$\xfb\x0f@\xb2\xea\xb4|$\xfb\x0f@\xb2\xea\xb4|$\xfb\x0f@'
p215
tp216
bsS'_inv_matrix'
p217
NsbsS'_coords'
p218
g43
(g44
(I0
tp219
g46
tp220
Rp221
(I1
(I3
tp222
g53
I00
S'\x00\x00\x00\x00\x00\x00\x00\x00\x00\x00\x00\x00\x00\x00\x00\x00\x00\x00\x00\x00\x00\x00\x00\x00'
p223
tp224
bsS'_properties'
p225
(dp226
sS'_is_ordered'
p227
I01
sbag30
(g38
g32
Ntp228
Rp229
(dp230
g42
g43
(g44
(I0
tp231
g46
tp232
Rp233
(I1
(I3
tp234
g53
I00
S'\x00\x00\x00\x00\x00\x00\xd0?\x00\x00\x00\x00\x00\x00\xd0?\x00\x00\x00\x00\x00\x00\xd0?'
p235
tp236
bsg58
g30
(g59
g32
Ntp237
Rp238
(dp239
g63
(dp240
g30
(g65
g32
Ntp241
Rp242
(dp243
S'superconduction_temperature'
p244
NsS'density_of_solid'
p245
V5727 kg m<sup>-3</sup>
p246
sS'molar_volume'
p247
V12.95 cm<sup>3</sup>
p248
sS'bulk_modulus'
p249
V22 GPa
p250
sS'electronic_structure'
p251
V[Ar].3d<sup>10</sup>.4s<sup>2</sup>.4p<sup>3</sup>
p252
sS'critical_temperature'
p253
V1700 K
p254
sS'melting_point'
p255
V1090 K
p256
sS'mendeleev_no'
p257
I89
sS'brinell_hardness'
p258
V1440 MN m<sup>-2</sup>
p259
sg84
I33
sg85
F2.18
sS'poissons_ratio'
p260
NsS'atomic_radius_calculated'
p261
F1.14
sg88
g30
(g89
g90
F74.9216
tp262
Rp263
(dp264
g94
g30
(g95
g32
Ntp265
Rp266
(dp267
g94
g99
(g100
tp268
Rp269
g103
I1
ssbsg104
g105
sg106
F74.9216
sbsS'reflectivity'
p270
NsS'electrical_resistivity'
p271
V33 10<sup>-8</sup> &Omega; m
p272
sS'liquid_range'
p273
V203 K
p274
sS'rigidity_modulus'
p275
Nsg113
VAs
p276
sS'van_der_waals_radius'
p277
F1.85
sg116
(dp278
VElectrical resistivity
p279
g272
sVElectronic structure
p280
g252
sVVelocity of sound
p281
Vno data m s<sup>-1</sup>
p282
sVOxidation states
p283
(lp284
I-3
aI2
aI3
aI5
asVReflectivity
p285
Vno data %
p286
sVPoissons ratio
p287
Vno data
p288
sVMolar volume
p289
g248
sVVan der waals radius
p290
F1.85
sg130
F2.18
sVName
p291
VArsenic
p292
sVBulk modulus
p293
g250
sVMineral hardness
p294
V3.5
p295
sVAtomic mass
p296
F74.9216
sVAtomic no
p297
I33
sVBoiling point
p298
V887 K
p299
sVCommon oxidation states
p300
(lp301
I-3
aI3
aI5
asVBrinell hardness
p302
g259
sVDensity of solid
p303
g246
sVCritical temperature
p304
g254
sVMelting point
p305
g256
sVMendeleev no
p306
I89
sVCoefficient of linear thermal expansion
p307
Vno data x10<sup>-6</sup>K<sup>-1</sup>
p308
sVYoungs modulus
p309
V8 GPa
p310
sVRigidity modulus
p311
Vno data GPa
p312
sVThermal conductivity
p313
V50 W m<sup>-1</sup> K<sup>-1</sup>
p314
sVLiquid range
p315
g274
sVAtomic radius calculated
p316
F1.14
sVVickers hardness
p317
Vno data MN m<sup>-2</sup>
p318
sVSuperconduction temperature
p319
Vno data K
p320
sVRefractive index
p321
V1.001552
p322
sVIonic radii
p323
(dp324
g166
F0.72
sV5
p325
F0.6
ssVAtomic radius
p326
F1.15
ssS'youngs_modulus'
p327
g310
sS'name'
p328
g292
sS'boiling_point'
p329
g299
sS'thermal_conductivity'
p330
g314
sS'velocity_of_sound'
p331
Nsg173
g30
(g89
g90
F1.15
tp332
Rp333
(dp334
g94
g30
(g95
g32
Ntp335
Rp336
(dp337
g94
g99
(g100
tp338
Rp339
g182
I1
ssbsg104
g183
sg106
F1.15
sbsS'mineral_hardness'
p340
g295
sS'vickers_hardness'
p341
NsS'refractive_index'
p342
g322
sS'coefficient_of_linear_thermal_expansion'
p343
NsbI1
ssg188
I00
sg189
I1
sbsg190
g193
sg218
g43
(g44
(I0
tp344
g46
tp345
Rp346
(I1
(I3
tp347
g53
I00
S'w\xbe\x9f\x1a/\x9d\xf6?w\xbe\x9f\x1a/\x9d\xf6?w\xbe\x9f\x1a/\x9d\xf6?'
p348
tp349
bsg225
(dp350
sg227
I01
sbasg190
g193
sbsS'charge_density_fname'
p351
S'32-GW/01-Density/out_data/odat_DEN'
p352
sS'ibnd_min'
p353
I1
sS'epsilon_extra_variables'
p354
(dp355
sS'vxcg_flag'
p356
I01
sS'sigma_extra_lines'
p357
(lp358
S'screening_semiconductor'
p359
asS'with_density'
p360
I00
s.