(dp0
S'dft_flavor'
p1
S'abinit'
p2
sS'mpirun'
p3
g3
sS'eps0mat_fname'
p4
S'32-GW/11-epsilon/eps0mat'
p5
sS'prefix'
p6
S'GaAs'
p7
sS'ecuteps'
p8
F10.0
sS'extra_lines'
p9
(lp10
S'screening_semiconductor'
p11
asS'rho_fname'
p12
S'32-GW/04-Wfn_co/Wavefunctions/rho.cplx'
p13
sS'ibnd_max'
p14
I8
sS'wfn_co_fname'
p15
S'32-GW/04-Wfn_co/Wavefunctions/wfn.cplx'
p16
sS'ngkpt'
p17
(lp18
I2
aI2
aI2
asS'vxc_fname'
p19
S'32-GW/04-Wfn_co/Wavefunctions/vxc.cplx'
p20
sS'epsmat_fname'
p21
S'32-GW/11-epsilon/epsmat'
p22
sS'ecut'
p23
F5.0
sS'pseudos'
p24
(lp25
S'31-Ga.pspnc'
p26
aS'33-As.pspnc'
p27
asS'nproc_per_node'
p28
I2
sS'pseudo_dir'
p29
S'../../Data/Pseudos'
p30
sS'wfn_fname'
p31
S'32-GW/02-Wfn/Wavefunctions/wfn.cplx'
p32
sS'nproc'
p33
I2
sS'nproc_flag'
p34
S'-n'
p35
sS'structure'
p36
ccopy_reg
_reconstructor
p37
(cpymatgen.core.structure
Structure
p38
c__builtin__
object
p39
Ntp40
Rp41
(dp42
S'_sites'
p43
(lp44
g37
(cpymatgen.core.sites
PeriodicSite
p45
g39
Ntp46
Rp47
(dp48
S'_fcoords'
p49
cnumpy.core.multiarray
_reconstruct
p50
(cnumpy
ndarray
p51
(I0
tp52
S'b'
p53
tp54
Rp55
(I1
(I3
tp56
cnumpy
dtype
p57
(S'f8'
p58
I0
I1
tp59
Rp60
(I3
S'<'
p61
NNNI-1
I-1
I0
tp62
bI00
S'\x00\x00\x00\x00\x00\x00\x00\x00\x00\x00\x00\x00\x00\x00\x00\x00\x00\x00\x00\x00\x00\x00\x00\x00'
p63
tp64
bsS'_species'
p65
g37
(cpymatgen.core.composition
Composition
p66
g39
Ntp67
Rp68
(dp69
S'_elmap'
p70
(dp71
g37
(cpymatgen.core.periodic_table
Element
p72
g39
Ntp73
Rp74
(dp75
S'superconduction_temperature'
p76
V1.083 K
p77
sS'density_of_solid'
p78
V5904 kg m<sup>-3</sup>
p79
sS'molar_volume'
p80
V11.80 cm<sup>3</sup>
p81
sS'bulk_modulus'
p82
NsS'electronic_structure'
p83
V[Ar].3d<sup>10</sup>.4s<sup>2</sup>.4p<sup>1</sup>
p84
sS'critical_temperature'
p85
NsS'melting_point'
p86
V302.91 K
p87
sS'mendeleev_no'
p88
I81
sS'brinell_hardness'
p89
V60 MN m<sup>-2</sup>
p90
sS'_z'
p91
I31
sS'_x'
p92
F1.81
sS'poissons_ratio'
p93
NsS'atomic_radius_calculated'
p94
F1.36
sS'atomic_mass'
p95
g37
(cpymatgen.core.units
FloatWithUnit
p96
c__builtin__
float
p97
F69.723
tp98
Rp99
(dp100
S'_unit'
p101
g37
(cpymatgen.core.units
Unit
p102
g39
Ntp103
Rp104
(dp105
g101
ccollections
defaultdict
p106
(c__builtin__
int
p107
tp108
Rp109
Vamu
p110
I1
ssbsS'_unit_type'
p111
Vmass
p112
sVval
p113
F69.723
sbsS'reflectivity'
p114
NsS'electrical_resistivity'
p115
Vabout  14 10<sup>-8</sup> &Omega; m
p116
sS'liquid_range'
p117
V2174.09 K
p118
sS'rigidity_modulus'
p119
NsS'_symbol'
p120
VGa
p121
sS'van_der_waals_radius'
p122
F1.87
sS'_data'
p123
(dp124
VElectrical resistivity
p125
g116
sVElectronic structure
p126
g84
sVVelocity of sound
p127
V2740 m s<sup>-1</sup>
p128
sVOxidation states
p129
(lp130
I1
aI2
aI3
asVReflectivity
p131
Vno data %
p132
sVPoissons ratio
p133
Vno data
p134
sVMolar volume
p135
g81
sVVan der waals radius
p136
F1.87
sVX
p137
F1.81
sVName
p138
VGallium
p139
sVBulk modulus
p140
Vno data GPa
p141
sVMineral hardness
p142
V1.5
p143
sVAtomic mass
p144
F69.723
sVAtomic no
p145
I31
sVBoiling point
p146
V2477 K
p147
sVCommon oxidation states
p148
(lp149
I3
asVBrinell hardness
p150
g90
sVDensity of solid
p151
g79
sVCritical temperature
p152
Vno data K
p153
sVMelting point
p154
g87
sVMendeleev no
p155
I81
sVCoefficient of linear thermal expansion
p156
V120 x10<sup>-6</sup>K<sup>-1</sup>
p157
sVYoungs modulus
p158
Vno data GPa
p159
sVRigidity modulus
p160
Vno data GPa
p161
sVThermal conductivity
p162
V29 W m<sup>-1</sup> K<sup>-1</sup>
p163
sVLiquid range
p164
g118
sVAtomic radius calculated
p165
F1.36
sVVickers hardness
p166
Vno data MN m<sup>-2</sup>
p167
sVSuperconduction temperature
p168
g77
sVRefractive index
p169
Vno data
p170
sVIonic radii
p171
(dp172
V3
p173
F0.76
ssVAtomic radius
p174
F1.3
ssS'youngs_modulus'
p175
NsS'name'
p176
g139
sS'boiling_point'
p177
g147
sS'thermal_conductivity'
p178
g163
sS'velocity_of_sound'
p179
g128
sS'atomic_radius'
p180
g37
(g96
g97
F1.3
tp181
Rp182
(dp183
g101
g37
(g102
g39
Ntp184
Rp185
(dp186
g101
g106
(g107
tp187
Rp188
Vang
p189
I1
ssbsg111
Vlength
p190
sg113
F1.3
sbsS'mineral_hardness'
p191
g143
sS'vickers_hardness'
p192
NsS'refractive_index'
p193
NsS'coefficient_of_linear_thermal_expansion'
p194
g157
sbI1
ssS'allow_negative'
p195
I00
sS'_natoms'
p196
I1
sbsS'_lattice'
p197
g37
(cpymatgen.core.lattice
Lattice
p198
g39
Ntp199
Rp200
(dp201
S'_metric_tensor'
p202
NsS'_matrix'
p203
g50
(g51
(I0
tp204
g53
tp205
Rp206
(I1
(I3
I3
tp207
g60
I00
S'\x00\x00\x00\x00\x00\x00\x00\x00w\xbe\x9f\x1a/\x9d\x06@w\xbe\x9f\x1a/\x9d\x06@w\xbe\x9f\x1a/\x9d\x06@\x00\x00\x00\x00\x00\x00\x00\x00w\xbe\x9f\x1a/\x9d\x06@w\xbe\x9f\x1a/\x9d\x06@w\xbe\x9f\x1a/\x9d\x06@\x00\x00\x00\x00\x00\x00\x00\x00'
p208
tp209
bsS'_angles'
p210
g50
(g51
(I0
tp211
g53
tp212
Rp213
(I1
(I3
tp214
g60
I00
S'\xff\xff\xff\xff\xff\xffM@\xff\xff\xff\xff\xff\xffM@\xff\xff\xff\xff\xff\xffM@'
p215
tp216
bsS'_lengths'
p217
g50
(g51
(I0
tp218
g53
tp219
Rp220
(I1
(I3
tp221
g60
I00
S'\xb2\xea\xb4|$\xfb\x0f@\xb2\xea\xb4|$\xfb\x0f@\xb2\xea\xb4|$\xfb\x0f@'
p222
tp223
bsS'_inv_matrix'
p224
NsbsS'_coords'
p225
g50
(g51
(I0
tp226
g53
tp227
Rp228
(I1
(I3
tp229
g60
I00
S'\x00\x00\x00\x00\x00\x00\x00\x00\x00\x00\x00\x00\x00\x00\x00\x00\x00\x00\x00\x00\x00\x00\x00\x00'
p230
tp231
bsS'_properties'
p232
(dp233
sS'_is_ordered'
p234
I01
sbag37
(g45
g39
Ntp235
Rp236
(dp237
g49
g50
(g51
(I0
tp238
g53
tp239
Rp240
(I1
(I3
tp241
g60
I00
S'\x00\x00\x00\x00\x00\x00\xd0?\x00\x00\x00\x00\x00\x00\xd0?\x00\x00\x00\x00\x00\x00\xd0?'
p242
tp243
bsg65
g37
(g66
g39
Ntp244
Rp245
(dp246
g70
(dp247
g37
(g72
g39
Ntp248
Rp249
(dp250
S'superconduction_temperature'
p251
NsS'density_of_solid'
p252
V5727 kg m<sup>-3</sup>
p253
sS'molar_volume'
p254
V12.95 cm<sup>3</sup>
p255
sS'bulk_modulus'
p256
V22 GPa
p257
sS'electronic_structure'
p258
V[Ar].3d<sup>10</sup>.4s<sup>2</sup>.4p<sup>3</sup>
p259
sS'critical_temperature'
p260
V1700 K
p261
sS'melting_point'
p262
V1090 K
p263
sS'mendeleev_no'
p264
I89
sS'brinell_hardness'
p265
V1440 MN m<sup>-2</sup>
p266
sg91
I33
sg92
F2.18
sS'poissons_ratio'
p267
NsS'atomic_radius_calculated'
p268
F1.14
sg95
g37
(g96
g97
F74.9216
tp269
Rp270
(dp271
g101
g37
(g102
g39
Ntp272
Rp273
(dp274
g101
g106
(g107
tp275
Rp276
g110
I1
ssbsg111
g112
sg113
F74.9216
sbsS'reflectivity'
p277
NsS'electrical_resistivity'
p278
V33 10<sup>-8</sup> &Omega; m
p279
sS'liquid_range'
p280
V203 K
p281
sS'rigidity_modulus'
p282
Nsg120
VAs
p283
sS'van_der_waals_radius'
p284
F1.85
sg123
(dp285
VElectrical resistivity
p286
g279
sVElectronic structure
p287
g259
sVVelocity of sound
p288
Vno data m s<sup>-1</sup>
p289
sVOxidation states
p290
(lp291
I-3
aI2
aI3
aI5
asVReflectivity
p292
Vno data %
p293
sVPoissons ratio
p294
Vno data
p295
sVMolar volume
p296
g255
sVVan der waals radius
p297
F1.85
sg137
F2.18
sVName
p298
VArsenic
p299
sVBulk modulus
p300
g257
sVMineral hardness
p301
V3.5
p302
sVAtomic mass
p303
F74.9216
sVAtomic no
p304
I33
sVBoiling point
p305
V887 K
p306
sVCommon oxidation states
p307
(lp308
I-3
aI3
aI5
asVBrinell hardness
p309
g266
sVDensity of solid
p310
g253
sVCritical temperature
p311
g261
sVMelting point
p312
g263
sVMendeleev no
p313
I89
sVCoefficient of linear thermal expansion
p314
Vno data x10<sup>-6</sup>K<sup>-1</sup>
p315
sVYoungs modulus
p316
V8 GPa
p317
sVRigidity modulus
p318
Vno data GPa
p319
sVThermal conductivity
p320
V50 W m<sup>-1</sup> K<sup>-1</sup>
p321
sVLiquid range
p322
g281
sVAtomic radius calculated
p323
F1.14
sVVickers hardness
p324
Vno data MN m<sup>-2</sup>
p325
sVSuperconduction temperature
p326
Vno data K
p327
sVRefractive index
p328
V1.001552
p329
sVIonic radii
p330
(dp331
g173
F0.72
sV5
p332
F0.6
ssVAtomic radius
p333
F1.15
ssS'youngs_modulus'
p334
g317
sS'name'
p335
g299
sS'boiling_point'
p336
g306
sS'thermal_conductivity'
p337
g321
sS'velocity_of_sound'
p338
Nsg180
g37
(g96
g97
F1.15
tp339
Rp340
(dp341
g101
g37
(g102
g39
Ntp342
Rp343
(dp344
g101
g106
(g107
tp345
Rp346
g189
I1
ssbsg111
g190
sg113
F1.15
sbsS'mineral_hardness'
p347
g302
sS'vickers_hardness'
p348
NsS'refractive_index'
p349
g329
sS'coefficient_of_linear_thermal_expansion'
p350
NsbI1
ssg195
I00
sg196
I1
sbsg197
g200
sg225
g50
(g51
(I0
tp351
g53
tp352
Rp353
(I1
(I3
tp354
g60
I00
S'w\xbe\x9f\x1a/\x9d\xf6?w\xbe\x9f\x1a/\x9d\xf6?w\xbe\x9f\x1a/\x9d\xf6?'
p355
tp356
bsg232
(dp357
sg234
I01
sbasg197
g200
sbsS'wfnq_fname'
p358
S'32-GW/03-Wfnq/Wavefunctions/wfn.cplx'
p359
sS'ibnd_min'
p360
I1
sS'nproc_per_node_flag'
p361
S'--npernode'
p362
sS'extra_variables'
p363
(dp364
s.