(dp0
S'mpirun'
p1
g1
sS'prefix'
p2
S'GaAs'
p3
sS'ecuteps'
p4
F10.0
sS'nbnd_epsilon'
p5
I8
sS'ibnd_max'
p6
I8
sS'nbnd_sigma'
p7
I8
sS'ngkpt'
p8
(lp9
I2
aI2
aI2
asS'kshift'
p10
(lp11
F0.5
aF0.5
aF0.5
asS'epsilon_extra_lines'
p12
(lp13
sS'sigma_extra_variables'
p14
(dp15
sS'pseudos'
p16
(lp17
S'31-Ga.PBE.UPF'
p18
aS'33-As.PBE.UPF'
p19
asS'nproc_per_node'
p20
I2
sS'pseudo_dir'
p21
S'Pseudos'
p22
sS'wfn_fname'
p23
S'wfn.cplx'
p24
sS'ecutsigx'
p25
F15.0
sS'nproc'
p26
I2
sS'ecutwfc'
p27
F10.0
sS'nproc_flag'
p28
S'-n'
p29
sS'structure'
p30
ccopy_reg
_reconstructor
p31
(cpymatgen.core.structure
Structure
p32
c__builtin__
object
p33
Ntp34
Rp35
(dp36
S'_sites'
p37
(lp38
g31
(cpymatgen.core.sites
PeriodicSite
p39
g33
Ntp40
Rp41
(dp42
S'_fcoords'
p43
cnumpy.core.multiarray
_reconstruct
p44
(cnumpy
ndarray
p45
(I0
tp46
S'b'
p47
tp48
Rp49
(I1
(I3
tp50
cnumpy
dtype
p51
(S'f8'
p52
I0
I1
tp53
Rp54
(I3
S'<'
p55
NNNI-1
I-1
I0
tp56
bI00
S'\x00\x00\x00\x00\x00\x00\x00\x00\x00\x00\x00\x00\x00\x00\x00\x00\x00\x00\x00\x00\x00\x00\x00\x00'
p57
tp58
bsS'_species'
p59
g31
(cpymatgen.core.composition
Composition
p60
g33
Ntp61
Rp62
(dp63
S'_elmap'
p64
(dp65
g31
(cpymatgen.core.periodic_table
Element
p66
g33
Ntp67
Rp68
(dp69
S'superconduction_temperature'
p70
V1.083 K
p71
sS'density_of_solid'
p72
V5904 kg m<sup>-3</sup>
p73
sS'molar_volume'
p74
V11.80 cm<sup>3</sup>
p75
sS'bulk_modulus'
p76
NsS'electronic_structure'
p77
V[Ar].3d<sup>10</sup>.4s<sup>2</sup>.4p<sup>1</sup>
p78
sS'critical_temperature'
p79
NsS'melting_point'
p80
V302.91 K
p81
sS'mendeleev_no'
p82
I81
sS'brinell_hardness'
p83
V60 MN m<sup>-2</sup>
p84
sS'_z'
p85
I31
sS'_x'
p86
F1.81
sS'poissons_ratio'
p87
NsS'atomic_radius_calculated'
p88
F1.36
sS'atomic_mass'
p89
g31
(cpymatgen.core.units
FloatWithUnit
p90
c__builtin__
float
p91
F69.723
tp92
Rp93
(dp94
S'_unit'
p95
g31
(cpymatgen.core.units
Unit
p96
g33
Ntp97
Rp98
(dp99
g95
ccollections
defaultdict
p100
(c__builtin__
int
p101
tp102
Rp103
Vamu
p104
I1
ssbsS'_unit_type'
p105
Vmass
p106
sVval
p107
F69.723
sbsS'reflectivity'
p108
NsS'electrical_resistivity'
p109
Vabout  14 10<sup>-8</sup> &Omega; m
p110
sS'liquid_range'
p111
V2174.09 K
p112
sS'rigidity_modulus'
p113
NsS'_symbol'
p114
VGa
p115
sS'van_der_waals_radius'
p116
F1.87
sS'_data'
p117
(dp118
VElectrical resistivity
p119
g110
sVElectronic structure
p120
g78
sVVelocity of sound
p121
V2740 m s<sup>-1</sup>
p122
sVOxidation states
p123
(lp124
I1
aI2
aI3
asVReflectivity
p125
Vno data %
p126
sVPoissons ratio
p127
Vno data
p128
sVMolar volume
p129
g75
sVVan der waals radius
p130
F1.87
sVX
p131
F1.81
sVName
p132
VGallium
p133
sVBulk modulus
p134
Vno data GPa
p135
sVMineral hardness
p136
V1.5
p137
sVAtomic mass
p138
F69.723
sVAtomic no
p139
I31
sVBoiling point
p140
V2477 K
p141
sVCommon oxidation states
p142
(lp143
I3
asVBrinell hardness
p144
g84
sVDensity of solid
p145
g73
sVCritical temperature
p146
Vno data K
p147
sVMelting point
p148
g81
sVMendeleev no
p149
I81
sVCoefficient of linear thermal expansion
p150
V120 x10<sup>-6</sup>K<sup>-1</sup>
p151
sVYoungs modulus
p152
Vno data GPa
p153
sVRigidity modulus
p154
Vno data GPa
p155
sVThermal conductivity
p156
V29 W m<sup>-1</sup> K<sup>-1</sup>
p157
sVLiquid range
p158
g112
sVAtomic radius calculated
p159
F1.36
sVVickers hardness
p160
Vno data MN m<sup>-2</sup>
p161
sVSuperconduction temperature
p162
g71
sVRefractive index
p163
Vno data
p164
sVIonic radii
p165
(dp166
V3
p167
F0.76
ssVAtomic radius
p168
F1.3
ssS'youngs_modulus'
p169
NsS'name'
p170
g133
sS'boiling_point'
p171
g141
sS'thermal_conductivity'
p172
g157
sS'velocity_of_sound'
p173
g122
sS'atomic_radius'
p174
g31
(g90
g91
F1.3
tp175
Rp176
(dp177
g95
g31
(g96
g33
Ntp178
Rp179
(dp180
g95
g100
(g101
tp181
Rp182
Vang
p183
I1
ssbsg105
Vlength
p184
sg107
F1.3
sbsS'mineral_hardness'
p185
g137
sS'vickers_hardness'
p186
NsS'refractive_index'
p187
NsS'coefficient_of_linear_thermal_expansion'
p188
g151
sbI1
ssS'allow_negative'
p189
I00
sS'_natoms'
p190
I1
sbsS'_lattice'
p191
g31
(cpymatgen.core.lattice
Lattice
p192
g33
Ntp193
Rp194
(dp195
S'_metric_tensor'
p196
NsS'_matrix'
p197
g44
(g45
(I0
tp198
g47
tp199
Rp200
(I1
(I3
I3
tp201
g54
I00
S'\x00\x00\x00\x00\x00\x00\x00\x00w\xbe\x9f\x1a/\x9d\x06@w\xbe\x9f\x1a/\x9d\x06@w\xbe\x9f\x1a/\x9d\x06@\x00\x00\x00\x00\x00\x00\x00\x00w\xbe\x9f\x1a/\x9d\x06@w\xbe\x9f\x1a/\x9d\x06@w\xbe\x9f\x1a/\x9d\x06@\x00\x00\x00\x00\x00\x00\x00\x00'
p202
tp203
bsS'_angles'
p204
g44
(g45
(I0
tp205
g47
tp206
Rp207
(I1
(I3
tp208
g54
I00
S'\xff\xff\xff\xff\xff\xffM@\xff\xff\xff\xff\xff\xffM@\xff\xff\xff\xff\xff\xffM@'
p209
tp210
bsS'_lengths'
p211
g44
(g45
(I0
tp212
g47
tp213
Rp214
(I1
(I3
tp215
g54
I00
S'\xb2\xea\xb4|$\xfb\x0f@\xb2\xea\xb4|$\xfb\x0f@\xb2\xea\xb4|$\xfb\x0f@'
p216
tp217
bsS'_inv_matrix'
p218
NsbsS'_coords'
p219
g44
(g45
(I0
tp220
g47
tp221
Rp222
(I1
(I3
tp223
g54
I00
S'\x00\x00\x00\x00\x00\x00\x00\x00\x00\x00\x00\x00\x00\x00\x00\x00\x00\x00\x00\x00\x00\x00\x00\x00'
p224
tp225
bsS'_properties'
p226
(dp227
sS'_is_ordered'
p228
I01
sbag31
(g39
g33
Ntp229
Rp230
(dp231
g43
g44
(g45
(I0
tp232
g47
tp233
Rp234
(I1
(I3
tp235
g54
I00
S'\x00\x00\x00\x00\x00\x00\xd0?\x00\x00\x00\x00\x00\x00\xd0?\x00\x00\x00\x00\x00\x00\xd0?'
p236
tp237
bsg59
g31
(g60
g33
Ntp238
Rp239
(dp240
g64
(dp241
g31
(g66
g33
Ntp242
Rp243
(dp244
S'superconduction_temperature'
p245
NsS'density_of_solid'
p246
V5727 kg m<sup>-3</sup>
p247
sS'molar_volume'
p248
V12.95 cm<sup>3</sup>
p249
sS'bulk_modulus'
p250
V22 GPa
p251
sS'electronic_structure'
p252
V[Ar].3d<sup>10</sup>.4s<sup>2</sup>.4p<sup>3</sup>
p253
sS'critical_temperature'
p254
V1700 K
p255
sS'melting_point'
p256
V1090 K
p257
sS'mendeleev_no'
p258
I89
sS'brinell_hardness'
p259
V1440 MN m<sup>-2</sup>
p260
sg85
I33
sg86
F2.18
sS'poissons_ratio'
p261
NsS'atomic_radius_calculated'
p262
F1.14
sg89
g31
(g90
g91
F74.9216
tp263
Rp264
(dp265
g95
g31
(g96
g33
Ntp266
Rp267
(dp268
g95
g100
(g101
tp269
Rp270
g104
I1
ssbsg105
g106
sg107
F74.9216
sbsS'reflectivity'
p271
NsS'electrical_resistivity'
p272
V33 10<sup>-8</sup> &Omega; m
p273
sS'liquid_range'
p274
V203 K
p275
sS'rigidity_modulus'
p276
Nsg114
VAs
p277
sS'van_der_waals_radius'
p278
F1.85
sg117
(dp279
VElectrical resistivity
p280
g273
sVElectronic structure
p281
g253
sVVelocity of sound
p282
Vno data m s<sup>-1</sup>
p283
sVOxidation states
p284
(lp285
I-3
aI2
aI3
aI5
asVReflectivity
p286
Vno data %
p287
sVPoissons ratio
p288
Vno data
p289
sVMolar volume
p290
g249
sVVan der waals radius
p291
F1.85
sg131
F2.18
sVName
p292
VArsenic
p293
sVBulk modulus
p294
g251
sVMineral hardness
p295
V3.5
p296
sVAtomic mass
p297
F74.9216
sVAtomic no
p298
I33
sVBoiling point
p299
V887 K
p300
sVCommon oxidation states
p301
(lp302
I-3
aI3
aI5
asVBrinell hardness
p303
g260
sVDensity of solid
p304
g247
sVCritical temperature
p305
g255
sVMelting point
p306
g257
sVMendeleev no
p307
I89
sVCoefficient of linear thermal expansion
p308
Vno data x10<sup>-6</sup>K<sup>-1</sup>
p309
sVYoungs modulus
p310
V8 GPa
p311
sVRigidity modulus
p312
Vno data GPa
p313
sVThermal conductivity
p314
V50 W m<sup>-1</sup> K<sup>-1</sup>
p315
sVLiquid range
p316
g275
sVAtomic radius calculated
p317
F1.14
sVVickers hardness
p318
Vno data MN m<sup>-2</sup>
p319
sVSuperconduction temperature
p320
Vno data K
p321
sVRefractive index
p322
V1.001552
p323
sVIonic radii
p324
(dp325
g167
F0.72
sV5
p326
F0.6
ssVAtomic radius
p327
F1.15
ssS'youngs_modulus'
p328
g311
sS'name'
p329
g293
sS'boiling_point'
p330
g300
sS'thermal_conductivity'
p331
g315
sS'velocity_of_sound'
p332
Nsg174
g31
(g90
g91
F1.15
tp333
Rp334
(dp335
g95
g31
(g96
g33
Ntp336
Rp337
(dp338
g95
g100
(g101
tp339
Rp340
g183
I1
ssbsg105
g184
sg107
F1.15
sbsS'mineral_hardness'
p341
g296
sS'vickers_hardness'
p342
NsS'refractive_index'
p343
g323
sS'coefficient_of_linear_thermal_expansion'
p344
NsbI1
ssg189
I00
sg190
I1
sbsg191
g194
sg219
g44
(g45
(I0
tp345
g47
tp346
Rp347
(I1
(I3
tp348
g54
I00
S'w\xbe\x9f\x1a/\x9d\xf6?w\xbe\x9f\x1a/\x9d\xf6?w\xbe\x9f\x1a/\x9d\xf6?'
p349
tp350
bsg226
(dp351
sg228
I01
sbasg191
g194
sbsS'ibnd_min'
p352
I1
sS'epsilon_extra_variables'
p353
(dp354
sS'sigma_extra_lines'
p355
(lp356
S'screening_semiconductor'
p357
asS'nproc_per_node_flag'
p358
S'--npernode'
p359
sS'nbnd_occ'
p360
I4
s.