(dp0
S'wfnq_fname'
p1
S'13-Wfnq/Wavefunctions/wfn.cplx'
p2
sS'nbnd'
p3
I8
sS'nproc_per_node'
p4
I2
sS'mpirun'
p5
g5
sS'qshift'
p6
(lp7
F0.001
aF0.0
aF0.0
asS'wfn_fname'
p8
S'12-Wfn/Wavefunctions/wfn.cplx'
p9
sS'ngkpt'
p10
(lp11
I2
aI2
aI2
asS'ecuteps'
p12
F10.0
sS'nproc_per_node_flag'
p13
S'--npernode'
p14
sS'nproc'
p15
I2
sS'nproc_flag'
p16
S'-n'
p17
sS'structure'
p18
ccopy_reg
_reconstructor
p19
(cpymatgen.core.structure
Structure
p20
c__builtin__
object
p21
Ntp22
Rp23
(dp24
S'_sites'
p25
(lp26
g19
(cpymatgen.core.sites
PeriodicSite
p27
g21
Ntp28
Rp29
(dp30
S'_fcoords'
p31
cnumpy.core.multiarray
_reconstruct
p32
(cnumpy
ndarray
p33
(I0
tp34
S'b'
p35
tp36
Rp37
(I1
(I3
tp38
cnumpy
dtype
p39
(S'f8'
p40
I0
I1
tp41
Rp42
(I3
S'<'
p43
NNNI-1
I-1
I0
tp44
bI00
S'\x00\x00\x00\x00\x00\x00\x00\x00\x00\x00\x00\x00\x00\x00\x00\x00\x00\x00\x00\x00\x00\x00\x00\x00'
p45
tp46
bsS'_species'
p47
g19
(cpymatgen.core.composition
Composition
p48
g21
Ntp49
Rp50
(dp51
S'_elmap'
p52
(dp53
g19
(cpymatgen.core.periodic_table
Element
p54
g21
Ntp55
Rp56
(dp57
S'superconduction_temperature'
p58
V1.083 K
p59
sS'density_of_solid'
p60
V5904 kg m<sup>-3</sup>
p61
sS'molar_volume'
p62
V11.80 cm<sup>3</sup>
p63
sS'bulk_modulus'
p64
NsS'electronic_structure'
p65
V[Ar].3d<sup>10</sup>.4s<sup>2</sup>.4p<sup>1</sup>
p66
sS'critical_temperature'
p67
NsS'melting_point'
p68
V302.91 K
p69
sS'mendeleev_no'
p70
I81
sS'brinell_hardness'
p71
V60 MN m<sup>-2</sup>
p72
sS'_z'
p73
I31
sS'_x'
p74
F1.81
sS'poissons_ratio'
p75
NsS'atomic_radius_calculated'
p76
F1.36
sS'atomic_mass'
p77
g19
(cpymatgen.core.units
FloatWithUnit
p78
c__builtin__
float
p79
F69.723
tp80
Rp81
(dp82
S'_unit'
p83
g19
(cpymatgen.core.units
Unit
p84
g21
Ntp85
Rp86
(dp87
g83
ccollections
defaultdict
p88
(c__builtin__
int
p89
tp90
Rp91
Vamu
p92
I1
ssbsS'_unit_type'
p93
Vmass
p94
sVval
p95
F69.723
sbsS'reflectivity'
p96
NsS'electrical_resistivity'
p97
Vabout  14 10<sup>-8</sup> &Omega; m
p98
sS'liquid_range'
p99
V2174.09 K
p100
sS'rigidity_modulus'
p101
NsS'_symbol'
p102
VGa
p103
sS'van_der_waals_radius'
p104
F1.87
sS'_data'
p105
(dp106
VElectrical resistivity
p107
g98
sVElectronic structure
p108
g66
sVVelocity of sound
p109
V2740 m s<sup>-1</sup>
p110
sVOxidation states
p111
(lp112
I1
aI2
aI3
asVReflectivity
p113
Vno data %
p114
sVPoissons ratio
p115
Vno data
p116
sVMolar volume
p117
g63
sVVan der waals radius
p118
F1.87
sVX
p119
F1.81
sVName
p120
VGallium
p121
sVBulk modulus
p122
Vno data GPa
p123
sVMineral hardness
p124
V1.5
p125
sVAtomic mass
p126
F69.723
sVAtomic no
p127
I31
sVBoiling point
p128
V2477 K
p129
sVCommon oxidation states
p130
(lp131
I3
asVBrinell hardness
p132
g72
sVDensity of solid
p133
g61
sVCritical temperature
p134
Vno data K
p135
sVMelting point
p136
g69
sVMendeleev no
p137
I81
sVCoefficient of linear thermal expansion
p138
V120 x10<sup>-6</sup>K<sup>-1</sup>
p139
sVYoungs modulus
p140
Vno data GPa
p141
sVRigidity modulus
p142
Vno data GPa
p143
sVThermal conductivity
p144
V29 W m<sup>-1</sup> K<sup>-1</sup>
p145
sVLiquid range
p146
g100
sVAtomic radius calculated
p147
F1.36
sVVickers hardness
p148
Vno data MN m<sup>-2</sup>
p149
sVSuperconduction temperature
p150
g59
sVRefractive index
p151
Vno data
p152
sVIonic radii
p153
(dp154
V3
p155
F0.76
ssVAtomic radius
p156
F1.3
ssS'youngs_modulus'
p157
NsS'name'
p158
g121
sS'boiling_point'
p159
g129
sS'thermal_conductivity'
p160
g145
sS'velocity_of_sound'
p161
g110
sS'atomic_radius'
p162
g19
(g78
g79
F1.3
tp163
Rp164
(dp165
g83
g19
(g84
g21
Ntp166
Rp167
(dp168
g83
g88
(g89
tp169
Rp170
Vang
p171
I1
ssbsg93
Vlength
p172
sg95
F1.3
sbsS'mineral_hardness'
p173
g125
sS'vickers_hardness'
p174
NsS'refractive_index'
p175
NsS'coefficient_of_linear_thermal_expansion'
p176
g139
sbI1
ssS'allow_negative'
p177
I00
sS'_natoms'
p178
I1
sbsS'_lattice'
p179
g19
(cpymatgen.core.lattice
Lattice
p180
g21
Ntp181
Rp182
(dp183
S'_metric_tensor'
p184
NsS'_matrix'
p185
g32
(g33
(I0
tp186
g35
tp187
Rp188
(I1
(I3
I3
tp189
g42
I00
S'\x00\x00\x00\x00\x00\x00\x00\x00w\xbe\x9f\x1a/\x9d\x06@w\xbe\x9f\x1a/\x9d\x06@w\xbe\x9f\x1a/\x9d\x06@\x00\x00\x00\x00\x00\x00\x00\x00w\xbe\x9f\x1a/\x9d\x06@w\xbe\x9f\x1a/\x9d\x06@w\xbe\x9f\x1a/\x9d\x06@\x00\x00\x00\x00\x00\x00\x00\x00'
p190
tp191
bsS'_angles'
p192
g32
(g33
(I0
tp193
g35
tp194
Rp195
(I1
(I3
tp196
g42
I00
S'\xff\xff\xff\xff\xff\xffM@\xff\xff\xff\xff\xff\xffM@\xff\xff\xff\xff\xff\xffM@'
p197
tp198
bsS'_lengths'
p199
g32
(g33
(I0
tp200
g35
tp201
Rp202
(I1
(I3
tp203
g42
I00
S'\xb2\xea\xb4|$\xfb\x0f@\xb2\xea\xb4|$\xfb\x0f@\xb2\xea\xb4|$\xfb\x0f@'
p204
tp205
bsS'_inv_matrix'
p206
NsbsS'_coords'
p207
g32
(g33
(I0
tp208
g35
tp209
Rp210
(I1
(I3
tp211
g42
I00
S'\x00\x00\x00\x00\x00\x00\x00\x00\x00\x00\x00\x00\x00\x00\x00\x00\x00\x00\x00\x00\x00\x00\x00\x00'
p212
tp213
bsS'_properties'
p214
(dp215
sS'_is_ordered'
p216
I01
sbag19
(g27
g21
Ntp217
Rp218
(dp219
g31
g32
(g33
(I0
tp220
g35
tp221
Rp222
(I1
(I3
tp223
g42
I00
S'\x00\x00\x00\x00\x00\x00\xd0?\x00\x00\x00\x00\x00\x00\xd0?\x00\x00\x00\x00\x00\x00\xd0?'
p224
tp225
bsg47
g19
(g48
g21
Ntp226
Rp227
(dp228
g52
(dp229
g19
(g54
g21
Ntp230
Rp231
(dp232
S'superconduction_temperature'
p233
NsS'density_of_solid'
p234
V5727 kg m<sup>-3</sup>
p235
sS'molar_volume'
p236
V12.95 cm<sup>3</sup>
p237
sS'bulk_modulus'
p238
V22 GPa
p239
sS'electronic_structure'
p240
V[Ar].3d<sup>10</sup>.4s<sup>2</sup>.4p<sup>3</sup>
p241
sS'critical_temperature'
p242
V1700 K
p243
sS'melting_point'
p244
V1090 K
p245
sS'mendeleev_no'
p246
I89
sS'brinell_hardness'
p247
V1440 MN m<sup>-2</sup>
p248
sg73
I33
sg74
F2.18
sS'poissons_ratio'
p249
NsS'atomic_radius_calculated'
p250
F1.14
sg77
g19
(g78
g79
F74.9216
tp251
Rp252
(dp253
g83
g19
(g84
g21
Ntp254
Rp255
(dp256
g83
g88
(g89
tp257
Rp258
g92
I1
ssbsg93
g94
sg95
F74.9216
sbsS'reflectivity'
p259
NsS'electrical_resistivity'
p260
V33 10<sup>-8</sup> &Omega; m
p261
sS'liquid_range'
p262
V203 K
p263
sS'rigidity_modulus'
p264
Nsg102
VAs
p265
sS'van_der_waals_radius'
p266
F1.85
sg105
(dp267
VElectrical resistivity
p268
g261
sVElectronic structure
p269
g241
sVVelocity of sound
p270
Vno data m s<sup>-1</sup>
p271
sVOxidation states
p272
(lp273
I-3
aI2
aI3
aI5
asVReflectivity
p274
Vno data %
p275
sVPoissons ratio
p276
Vno data
p277
sVMolar volume
p278
g237
sVVan der waals radius
p279
F1.85
sg119
F2.18
sVName
p280
VArsenic
p281
sVBulk modulus
p282
g239
sVMineral hardness
p283
V3.5
p284
sVAtomic mass
p285
F74.9216
sVAtomic no
p286
I33
sVBoiling point
p287
V887 K
p288
sVCommon oxidation states
p289
(lp290
I-3
aI3
aI5
asVBrinell hardness
p291
g248
sVDensity of solid
p292
g235
sVCritical temperature
p293
g243
sVMelting point
p294
g245
sVMendeleev no
p295
I89
sVCoefficient of linear thermal expansion
p296
Vno data x10<sup>-6</sup>K<sup>-1</sup>
p297
sVYoungs modulus
p298
V8 GPa
p299
sVRigidity modulus
p300
Vno data GPa
p301
sVThermal conductivity
p302
V50 W m<sup>-1</sup> K<sup>-1</sup>
p303
sVLiquid range
p304
g263
sVAtomic radius calculated
p305
F1.14
sVVickers hardness
p306
Vno data MN m<sup>-2</sup>
p307
sVSuperconduction temperature
p308
Vno data K
p309
sVRefractive index
p310
V1.001552
p311
sVIonic radii
p312
(dp313
g155
F0.72
sV5
p314
F0.6
ssVAtomic radius
p315
F1.15
ssS'youngs_modulus'
p316
g299
sS'name'
p317
g281
sS'boiling_point'
p318
g288
sS'thermal_conductivity'
p319
g303
sS'velocity_of_sound'
p320
Nsg162
g19
(g78
g79
F1.15
tp321
Rp322
(dp323
g83
g19
(g84
g21
Ntp324
Rp325
(dp326
g83
g88
(g89
tp327
Rp328
g171
I1
ssbsg93
g172
sg95
F1.15
sbsS'mineral_hardness'
p329
g284
sS'vickers_hardness'
p330
NsS'refractive_index'
p331
g311
sS'coefficient_of_linear_thermal_expansion'
p332
NsbI1
ssg177
I00
sg178
I1
sbsg179
g182
sg207
g32
(g33
(I0
tp333
g35
tp334
Rp335
(I1
(I3
tp336
g42
I00
S'w\xbe\x9f\x1a/\x9d\xf6?w\xbe\x9f\x1a/\x9d\xf6?w\xbe\x9f\x1a/\x9d\xf6?'
p337
tp338
bsg214
(dp339
sg216
I01
sbasg179
g182
sbs.