(dp0
S'nbnd_cond_fi'
p1
I4
sS'absorption_extra_variables'
p2
(dp3
S'energy_resolution'
p4
F0.15
ssS'dft_flavor'
p5
S'abinit'
p6
sS'mpirun'
p7
g7
sS'nband'
p8
NsS'ngkpt'
p9
(lp10
I2
aI2
aI2
asS'prefix'
p11
S'GaAs'
p12
sS'ecuteps'
p13
F10.0
sS'kernel_extra_lines'
p14
(lp15
S'use_symmetries_coarse_grid'
p16
aS'screening_semiconductor'
p17
asS'ibnd_max'
p18
I8
sS'absorption_extra_lines'
p19
(lp20
g16
aS'no_symmetries_fine_grid'
p21
aS'no_symmetries_shifted_grid'
p22
ag17
aS'use_velocity'
p23
aS'gaussian_broadening'
p24
aS'eqp_co_corrections'
p25
asS'qshift'
p26
(lp27
F0.001
aF0.0
aF0.0
asS'kshift'
p28
(lp29
F0.5
aF0.5
aF0.5
asS'nbnd_val_fi'
p30
I4
sS'nproc_per_node_flag'
p31
S'--npernode'
p32
sS'ecut'
p33
F5.0
sS'pseudos'
p34
(lp35
S'31-Ga.pspnc'
p36
aS'33-As.pspnc'
p37
asS'nproc_per_node'
p38
I2
sS'pseudo_dir'
p39
S'../../Data/Pseudos'
p40
sS'nbnd_cond_co'
p41
I4
sS'nproc'
p42
I2
sS'nbnd_cond'
p43
I4
sS'nproc_flag'
p44
S'-n'
p45
sS'structure'
p46
ccopy_reg
_reconstructor
p47
(cpymatgen.core.structure
Structure
p48
c__builtin__
object
p49
Ntp50
Rp51
(dp52
S'_sites'
p53
(lp54
g47
(cpymatgen.core.sites
PeriodicSite
p55
g49
Ntp56
Rp57
(dp58
S'_fcoords'
p59
cnumpy.core.multiarray
_reconstruct
p60
(cnumpy
ndarray
p61
(I0
tp62
S'b'
p63
tp64
Rp65
(I1
(I3
tp66
cnumpy
dtype
p67
(S'f8'
p68
I0
I1
tp69
Rp70
(I3
S'<'
p71
NNNI-1
I-1
I0
tp72
bI00
S'\x00\x00\x00\x00\x00\x00\x00\x00\x00\x00\x00\x00\x00\x00\x00\x00\x00\x00\x00\x00\x00\x00\x00\x00'
p73
tp74
bsS'_species'
p75
g47
(cpymatgen.core.composition
Composition
p76
g49
Ntp77
Rp78
(dp79
S'_elmap'
p80
(dp81
g47
(cpymatgen.core.periodic_table
Element
p82
g49
Ntp83
Rp84
(dp85
S'superconduction_temperature'
p86
V1.083 K
p87
sS'density_of_solid'
p88
V5904 kg m<sup>-3</sup>
p89
sS'molar_volume'
p90
V11.80 cm<sup>3</sup>
p91
sS'bulk_modulus'
p92
NsS'electronic_structure'
p93
V[Ar].3d<sup>10</sup>.4s<sup>2</sup>.4p<sup>1</sup>
p94
sS'critical_temperature'
p95
NsS'melting_point'
p96
V302.91 K
p97
sS'mendeleev_no'
p98
I81
sS'brinell_hardness'
p99
V60 MN m<sup>-2</sup>
p100
sS'_z'
p101
I31
sS'_x'
p102
F1.81
sS'poissons_ratio'
p103
NsS'atomic_radius_calculated'
p104
F1.36
sS'atomic_mass'
p105
g47
(cpymatgen.core.units
FloatWithUnit
p106
c__builtin__
float
p107
F69.723
tp108
Rp109
(dp110
S'_unit'
p111
g47
(cpymatgen.core.units
Unit
p112
g49
Ntp113
Rp114
(dp115
g111
ccollections
defaultdict
p116
(c__builtin__
int
p117
tp118
Rp119
Vamu
p120
I1
ssbsS'_unit_type'
p121
Vmass
p122
sVval
p123
F69.723
sbsS'reflectivity'
p124
NsS'electrical_resistivity'
p125
Vabout  14 10<sup>-8</sup> &Omega; m
p126
sS'liquid_range'
p127
V2174.09 K
p128
sS'rigidity_modulus'
p129
NsS'_symbol'
p130
VGa
p131
sS'van_der_waals_radius'
p132
F1.87
sS'_data'
p133
(dp134
VElectrical resistivity
p135
g126
sVElectronic structure
p136
g94
sVVelocity of sound
p137
V2740 m s<sup>-1</sup>
p138
sVOxidation states
p139
(lp140
I1
aI2
aI3
asVReflectivity
p141
Vno data %
p142
sVPoissons ratio
p143
Vno data
p144
sVMolar volume
p145
g91
sVVan der waals radius
p146
F1.87
sVX
p147
F1.81
sVName
p148
VGallium
p149
sVBulk modulus
p150
Vno data GPa
p151
sVMineral hardness
p152
V1.5
p153
sVAtomic mass
p154
F69.723
sVAtomic no
p155
I31
sVBoiling point
p156
V2477 K
p157
sVCommon oxidation states
p158
(lp159
I3
asVBrinell hardness
p160
g100
sVDensity of solid
p161
g89
sVCritical temperature
p162
Vno data K
p163
sVMelting point
p164
g97
sVMendeleev no
p165
I81
sVCoefficient of linear thermal expansion
p166
V120 x10<sup>-6</sup>K<sup>-1</sup>
p167
sVYoungs modulus
p168
Vno data GPa
p169
sVRigidity modulus
p170
Vno data GPa
p171
sVThermal conductivity
p172
V29 W m<sup>-1</sup> K<sup>-1</sup>
p173
sVLiquid range
p174
g128
sVAtomic radius calculated
p175
F1.36
sVVickers hardness
p176
Vno data MN m<sup>-2</sup>
p177
sVSuperconduction temperature
p178
g87
sVRefractive index
p179
Vno data
p180
sVIonic radii
p181
(dp182
V3
p183
F0.76
ssVAtomic radius
p184
F1.3
ssS'youngs_modulus'
p185
NsS'name'
p186
g149
sS'boiling_point'
p187
g157
sS'thermal_conductivity'
p188
g173
sS'velocity_of_sound'
p189
g138
sS'atomic_radius'
p190
g47
(g106
g107
F1.3
tp191
Rp192
(dp193
g111
g47
(g112
g49
Ntp194
Rp195
(dp196
g111
g116
(g117
tp197
Rp198
Vang
p199
I1
ssbsg121
Vlength
p200
sg123
F1.3
sbsS'mineral_hardness'
p201
g153
sS'vickers_hardness'
p202
NsS'refractive_index'
p203
NsS'coefficient_of_linear_thermal_expansion'
p204
g167
sbI1
ssS'allow_negative'
p205
I00
sS'_natoms'
p206
I1
sbsS'_lattice'
p207
g47
(cpymatgen.core.lattice
Lattice
p208
g49
Ntp209
Rp210
(dp211
S'_metric_tensor'
p212
NsS'_matrix'
p213
g60
(g61
(I0
tp214
g63
tp215
Rp216
(I1
(I3
I3
tp217
g70
I00
S'\x00\x00\x00\x00\x00\x00\x00\x00w\xbe\x9f\x1a/\x9d\x06@w\xbe\x9f\x1a/\x9d\x06@w\xbe\x9f\x1a/\x9d\x06@\x00\x00\x00\x00\x00\x00\x00\x00w\xbe\x9f\x1a/\x9d\x06@w\xbe\x9f\x1a/\x9d\x06@w\xbe\x9f\x1a/\x9d\x06@\x00\x00\x00\x00\x00\x00\x00\x00'
p218
tp219
bsS'_angles'
p220
g60
(g61
(I0
tp221
g63
tp222
Rp223
(I1
(I3
tp224
g70
I00
S'\xff\xff\xff\xff\xff\xffM@\xff\xff\xff\xff\xff\xffM@\xff\xff\xff\xff\xff\xffM@'
p225
tp226
bsS'_lengths'
p227
g60
(g61
(I0
tp228
g63
tp229
Rp230
(I1
(I3
tp231
g70
I00
S'\xb2\xea\xb4|$\xfb\x0f@\xb2\xea\xb4|$\xfb\x0f@\xb2\xea\xb4|$\xfb\x0f@'
p232
tp233
bsS'_inv_matrix'
p234
NsbsS'_coords'
p235
g60
(g61
(I0
tp236
g63
tp237
Rp238
(I1
(I3
tp239
g70
I00
S'\x00\x00\x00\x00\x00\x00\x00\x00\x00\x00\x00\x00\x00\x00\x00\x00\x00\x00\x00\x00\x00\x00\x00\x00'
p240
tp241
bsS'_properties'
p242
(dp243
sS'_is_ordered'
p244
I01
sbag47
(g55
g49
Ntp245
Rp246
(dp247
g59
g60
(g61
(I0
tp248
g63
tp249
Rp250
(I1
(I3
tp251
g70
I00
S'\x00\x00\x00\x00\x00\x00\xd0?\x00\x00\x00\x00\x00\x00\xd0?\x00\x00\x00\x00\x00\x00\xd0?'
p252
tp253
bsg75
g47
(g76
g49
Ntp254
Rp255
(dp256
g80
(dp257
g47
(g82
g49
Ntp258
Rp259
(dp260
S'superconduction_temperature'
p261
NsS'density_of_solid'
p262
V5727 kg m<sup>-3</sup>
p263
sS'molar_volume'
p264
V12.95 cm<sup>3</sup>
p265
sS'bulk_modulus'
p266
V22 GPa
p267
sS'electronic_structure'
p268
V[Ar].3d<sup>10</sup>.4s<sup>2</sup>.4p<sup>3</sup>
p269
sS'critical_temperature'
p270
V1700 K
p271
sS'melting_point'
p272
V1090 K
p273
sS'mendeleev_no'
p274
I89
sS'brinell_hardness'
p275
V1440 MN m<sup>-2</sup>
p276
sg101
I33
sg102
F2.18
sS'poissons_ratio'
p277
NsS'atomic_radius_calculated'
p278
F1.14
sg105
g47
(g106
g107
F74.9216
tp279
Rp280
(dp281
g111
g47
(g112
g49
Ntp282
Rp283
(dp284
g111
g116
(g117
tp285
Rp286
g120
I1
ssbsg121
g122
sg123
F74.9216
sbsS'reflectivity'
p287
NsS'electrical_resistivity'
p288
V33 10<sup>-8</sup> &Omega; m
p289
sS'liquid_range'
p290
V203 K
p291
sS'rigidity_modulus'
p292
Nsg130
VAs
p293
sS'van_der_waals_radius'
p294
F1.85
sg133
(dp295
VElectrical resistivity
p296
g289
sVElectronic structure
p297
g269
sVVelocity of sound
p298
Vno data m s<sup>-1</sup>
p299
sVOxidation states
p300
(lp301
I-3
aI2
aI3
aI5
asVReflectivity
p302
Vno data %
p303
sVPoissons ratio
p304
Vno data
p305
sVMolar volume
p306
g265
sVVan der waals radius
p307
F1.85
sg147
F2.18
sVName
p308
VArsenic
p309
sVBulk modulus
p310
g267
sVMineral hardness
p311
V3.5
p312
sVAtomic mass
p313
F74.9216
sVAtomic no
p314
I33
sVBoiling point
p315
V887 K
p316
sVCommon oxidation states
p317
(lp318
I-3
aI3
aI5
asVBrinell hardness
p319
g276
sVDensity of solid
p320
g263
sVCritical temperature
p321
g271
sVMelting point
p322
g273
sVMendeleev no
p323
I89
sVCoefficient of linear thermal expansion
p324
Vno data x10<sup>-6</sup>K<sup>-1</sup>
p325
sVYoungs modulus
p326
V8 GPa
p327
sVRigidity modulus
p328
Vno data GPa
p329
sVThermal conductivity
p330
V50 W m<sup>-1</sup> K<sup>-1</sup>
p331
sVLiquid range
p332
g291
sVAtomic radius calculated
p333
F1.14
sVVickers hardness
p334
Vno data MN m<sup>-2</sup>
p335
sVSuperconduction temperature
p336
Vno data K
p337
sVRefractive index
p338
V1.001552
p339
sVIonic radii
p340
(dp341
g183
F0.72
sV5
p342
F0.6
ssVAtomic radius
p343
F1.15
ssS'youngs_modulus'
p344
g327
sS'name'
p345
g309
sS'boiling_point'
p346
g316
sS'thermal_conductivity'
p347
g331
sS'velocity_of_sound'
p348
Nsg190
g47
(g106
g107
F1.15
tp349
Rp350
(dp351
g111
g47
(g112
g49
Ntp352
Rp353
(dp354
g111
g116
(g117
tp355
Rp356
g199
I1
ssbsg121
g200
sg123
F1.15
sbsS'mineral_hardness'
p357
g312
sS'vickers_hardness'
p358
NsS'refractive_index'
p359
g339
sS'coefficient_of_linear_thermal_expansion'
p360
NsbI1
ssg205
I00
sg206
I1
sbsg207
g210
sg235
g60
(g61
(I0
tp361
g63
tp362
Rp363
(I1
(I3
tp364
g70
I00
S'w\xbe\x9f\x1a/\x9d\xf6?w\xbe\x9f\x1a/\x9d\xf6?w\xbe\x9f\x1a/\x9d\xf6?'
p365
tp366
bsg242
(dp367
sg244
I01
sbasg207
g210
sbsS'charge_density_fname'
p368
S'33-BSE/01-Density/out_data/odat_DEN'
p369
sS'ibnd_min'
p370
I1
sS'sigma_extra_lines'
p371
(lp372
g17
asS'nbnd_val'
p373
I4
sS'nbnd_val_co'
p374
I4
sS'with_density'
p375
I00
s.