(dp0
S'ibnd_min'
p1
I1
sS'vxc_fname'
p2
S'14-Wfn_co/vxc.dat'
p3
sS'epsmat_fname'
p4
S'21-Epsilon/epsmat'
p5
sS'nproc_per_node'
p6
I2
sS'mpirun'
p7
g7
sS'eps0mat_fname'
p8
S'21-Epsilon/eps0mat'
p9
sS'rho_fname'
p10
S'14-Wfn_co/rho.real'
p11
sS'ngkpt'
p12
(lp13
I2
aI2
aI2
asS'ecutsigx'
p14
F15.0
sS'ecuteps'
p15
F10.0
sS'nproc_per_node_flag'
p16
S'--npernode'
p17
sS'nproc'
p18
I2
sS'wfn_co_fname'
p19
S'14-Wfn_co/wfn_co.cplx'
p20
sS'nbnd'
p21
I8
sS'ibnd_max'
p22
I8
sS'nproc_flag'
p23
S'-n'
p24
sS'structure'
p25
ccopy_reg
_reconstructor
p26
(cpymatgen.core.structure
Structure
p27
c__builtin__
object
p28
Ntp29
Rp30
(dp31
S'_sites'
p32
(lp33
g26
(cpymatgen.core.sites
PeriodicSite
p34
g28
Ntp35
Rp36
(dp37
S'_fcoords'
p38
cnumpy.core.multiarray
_reconstruct
p39
(cnumpy
ndarray
p40
(I0
tp41
S'b'
p42
tp43
Rp44
(I1
(I3
tp45
cnumpy
dtype
p46
(S'f8'
p47
I0
I1
tp48
Rp49
(I3
S'<'
p50
NNNI-1
I-1
I0
tp51
bI00
S'\x00\x00\x00\x00\x00\x00\x00\x00\x00\x00\x00\x00\x00\x00\x00\x00\x00\x00\x00\x00\x00\x00\x00\x00'
p52
tp53
bsS'_species'
p54
g26
(cpymatgen.core.composition
Composition
p55
g28
Ntp56
Rp57
(dp58
S'_elmap'
p59
(dp60
g26
(cpymatgen.core.periodic_table
Element
p61
g28
Ntp62
Rp63
(dp64
S'superconduction_temperature'
p65
V1.083 K
p66
sS'density_of_solid'
p67
V5904 kg m<sup>-3</sup>
p68
sS'molar_volume'
p69
V11.80 cm<sup>3</sup>
p70
sS'bulk_modulus'
p71
NsS'electronic_structure'
p72
V[Ar].3d<sup>10</sup>.4s<sup>2</sup>.4p<sup>1</sup>
p73
sS'critical_temperature'
p74
NsS'melting_point'
p75
V302.91 K
p76
sS'mendeleev_no'
p77
I81
sS'brinell_hardness'
p78
V60 MN m<sup>-2</sup>
p79
sS'_z'
p80
I31
sS'_x'
p81
F1.81
sS'poissons_ratio'
p82
NsS'atomic_radius_calculated'
p83
F1.36
sS'atomic_mass'
p84
g26
(cpymatgen.core.units
FloatWithUnit
p85
c__builtin__
float
p86
F69.723
tp87
Rp88
(dp89
S'_unit'
p90
g26
(cpymatgen.core.units
Unit
p91
g28
Ntp92
Rp93
(dp94
g90
ccollections
defaultdict
p95
(c__builtin__
int
p96
tp97
Rp98
Vamu
p99
I1
ssbsS'_unit_type'
p100
Vmass
p101
sVval
p102
F69.723
sbsS'reflectivity'
p103
NsS'electrical_resistivity'
p104
Vabout  14 10<sup>-8</sup> &Omega; m
p105
sS'liquid_range'
p106
V2174.09 K
p107
sS'rigidity_modulus'
p108
NsS'_symbol'
p109
VGa
p110
sS'van_der_waals_radius'
p111
F1.87
sS'_data'
p112
(dp113
VElectrical resistivity
p114
g105
sVElectronic structure
p115
g73
sVVelocity of sound
p116
V2740 m s<sup>-1</sup>
p117
sVOxidation states
p118
(lp119
I1
aI2
aI3
asVReflectivity
p120
Vno data %
p121
sVPoissons ratio
p122
Vno data
p123
sVMolar volume
p124
g70
sVVan der waals radius
p125
F1.87
sVX
p126
F1.81
sVName
p127
VGallium
p128
sVBulk modulus
p129
Vno data GPa
p130
sVMineral hardness
p131
V1.5
p132
sVAtomic mass
p133
F69.723
sVAtomic no
p134
I31
sVBoiling point
p135
V2477 K
p136
sVCommon oxidation states
p137
(lp138
I3
asVBrinell hardness
p139
g79
sVDensity of solid
p140
g68
sVCritical temperature
p141
Vno data K
p142
sVMelting point
p143
g76
sVMendeleev no
p144
I81
sVCoefficient of linear thermal expansion
p145
V120 x10<sup>-6</sup>K<sup>-1</sup>
p146
sVYoungs modulus
p147
Vno data GPa
p148
sVRigidity modulus
p149
Vno data GPa
p150
sVThermal conductivity
p151
V29 W m<sup>-1</sup> K<sup>-1</sup>
p152
sVLiquid range
p153
g107
sVAtomic radius calculated
p154
F1.36
sVVickers hardness
p155
Vno data MN m<sup>-2</sup>
p156
sVSuperconduction temperature
p157
g66
sVRefractive index
p158
Vno data
p159
sVIonic radii
p160
(dp161
V3
p162
F0.76
ssVAtomic radius
p163
F1.3
ssS'youngs_modulus'
p164
NsS'name'
p165
g128
sS'boiling_point'
p166
g136
sS'thermal_conductivity'
p167
g152
sS'velocity_of_sound'
p168
g117
sS'atomic_radius'
p169
g26
(g85
g86
F1.3
tp170
Rp171
(dp172
g90
g26
(g91
g28
Ntp173
Rp174
(dp175
g90
g95
(g96
tp176
Rp177
Vang
p178
I1
ssbsg100
Vlength
p179
sg102
F1.3
sbsS'mineral_hardness'
p180
g132
sS'vickers_hardness'
p181
NsS'refractive_index'
p182
NsS'coefficient_of_linear_thermal_expansion'
p183
g146
sbI1
ssS'allow_negative'
p184
I00
sS'_natoms'
p185
I1
sbsS'_lattice'
p186
g26
(cpymatgen.core.lattice
Lattice
p187
g28
Ntp188
Rp189
(dp190
S'_metric_tensor'
p191
NsS'_matrix'
p192
g39
(g40
(I0
tp193
g42
tp194
Rp195
(I1
(I3
I3
tp196
g49
I00
S'\x00\x00\x00\x00\x00\x00\x00\x00w\xbe\x9f\x1a/\x9d\x06@w\xbe\x9f\x1a/\x9d\x06@w\xbe\x9f\x1a/\x9d\x06@\x00\x00\x00\x00\x00\x00\x00\x00w\xbe\x9f\x1a/\x9d\x06@w\xbe\x9f\x1a/\x9d\x06@w\xbe\x9f\x1a/\x9d\x06@\x00\x00\x00\x00\x00\x00\x00\x00'
p197
tp198
bsS'_angles'
p199
g39
(g40
(I0
tp200
g42
tp201
Rp202
(I1
(I3
tp203
g49
I00
S'\xff\xff\xff\xff\xff\xffM@\xff\xff\xff\xff\xff\xffM@\xff\xff\xff\xff\xff\xffM@'
p204
tp205
bsS'_lengths'
p206
g39
(g40
(I0
tp207
g42
tp208
Rp209
(I1
(I3
tp210
g49
I00
S'\xb2\xea\xb4|$\xfb\x0f@\xb2\xea\xb4|$\xfb\x0f@\xb2\xea\xb4|$\xfb\x0f@'
p211
tp212
bsS'_inv_matrix'
p213
NsbsS'_coords'
p214
g39
(g40
(I0
tp215
g42
tp216
Rp217
(I1
(I3
tp218
g49
I00
S'\x00\x00\x00\x00\x00\x00\x00\x00\x00\x00\x00\x00\x00\x00\x00\x00\x00\x00\x00\x00\x00\x00\x00\x00'
p219
tp220
bsS'_properties'
p221
(dp222
sS'_is_ordered'
p223
I01
sbag26
(g34
g28
Ntp224
Rp225
(dp226
g38
g39
(g40
(I0
tp227
g42
tp228
Rp229
(I1
(I3
tp230
g49
I00
S'\x00\x00\x00\x00\x00\x00\xd0?\x00\x00\x00\x00\x00\x00\xd0?\x00\x00\x00\x00\x00\x00\xd0?'
p231
tp232
bsg54
g26
(g55
g28
Ntp233
Rp234
(dp235
g59
(dp236
g26
(g61
g28
Ntp237
Rp238
(dp239
S'superconduction_temperature'
p240
NsS'density_of_solid'
p241
V5727 kg m<sup>-3</sup>
p242
sS'molar_volume'
p243
V12.95 cm<sup>3</sup>
p244
sS'bulk_modulus'
p245
V22 GPa
p246
sS'electronic_structure'
p247
V[Ar].3d<sup>10</sup>.4s<sup>2</sup>.4p<sup>3</sup>
p248
sS'critical_temperature'
p249
V1700 K
p250
sS'melting_point'
p251
V1090 K
p252
sS'mendeleev_no'
p253
I89
sS'brinell_hardness'
p254
V1440 MN m<sup>-2</sup>
p255
sg80
I33
sg81
F2.18
sS'poissons_ratio'
p256
NsS'atomic_radius_calculated'
p257
F1.14
sg84
g26
(g85
g86
F74.9216
tp258
Rp259
(dp260
g90
g26
(g91
g28
Ntp261
Rp262
(dp263
g90
g95
(g96
tp264
Rp265
g99
I1
ssbsg100
g101
sg102
F74.9216
sbsS'reflectivity'
p266
NsS'electrical_resistivity'
p267
V33 10<sup>-8</sup> &Omega; m
p268
sS'liquid_range'
p269
V203 K
p270
sS'rigidity_modulus'
p271
Nsg109
VAs
p272
sS'van_der_waals_radius'
p273
F1.85
sg112
(dp274
VElectrical resistivity
p275
g268
sVElectronic structure
p276
g248
sVVelocity of sound
p277
Vno data m s<sup>-1</sup>
p278
sVOxidation states
p279
(lp280
I-3
aI2
aI3
aI5
asVReflectivity
p281
Vno data %
p282
sVPoissons ratio
p283
Vno data
p284
sVMolar volume
p285
g244
sVVan der waals radius
p286
F1.85
sg126
F2.18
sVName
p287
VArsenic
p288
sVBulk modulus
p289
g246
sVMineral hardness
p290
V3.5
p291
sVAtomic mass
p292
F74.9216
sVAtomic no
p293
I33
sVBoiling point
p294
V887 K
p295
sVCommon oxidation states
p296
(lp297
I-3
aI3
aI5
asVBrinell hardness
p298
g255
sVDensity of solid
p299
g242
sVCritical temperature
p300
g250
sVMelting point
p301
g252
sVMendeleev no
p302
I89
sVCoefficient of linear thermal expansion
p303
Vno data x10<sup>-6</sup>K<sup>-1</sup>
p304
sVYoungs modulus
p305
V8 GPa
p306
sVRigidity modulus
p307
Vno data GPa
p308
sVThermal conductivity
p309
V50 W m<sup>-1</sup> K<sup>-1</sup>
p310
sVLiquid range
p311
g270
sVAtomic radius calculated
p312
F1.14
sVVickers hardness
p313
Vno data MN m<sup>-2</sup>
p314
sVSuperconduction temperature
p315
Vno data K
p316
sVRefractive index
p317
V1.001552
p318
sVIonic radii
p319
(dp320
g162
F0.72
sV5
p321
F0.6
ssVAtomic radius
p322
F1.15
ssS'youngs_modulus'
p323
g306
sS'name'
p324
g288
sS'boiling_point'
p325
g295
sS'thermal_conductivity'
p326
g310
sS'velocity_of_sound'
p327
Nsg169
g26
(g85
g86
F1.15
tp328
Rp329
(dp330
g90
g26
(g91
g28
Ntp331
Rp332
(dp333
g90
g95
(g96
tp334
Rp335
g178
I1
ssbsg100
g179
sg102
F1.15
sbsS'mineral_hardness'
p336
g291
sS'vickers_hardness'
p337
NsS'refractive_index'
p338
g318
sS'coefficient_of_linear_thermal_expansion'
p339
NsbI1
ssg184
I00
sg185
I1
sbsg186
g189
sg214
g39
(g40
(I0
tp340
g42
tp341
Rp342
(I1
(I3
tp343
g49
I00
S'w\xbe\x9f\x1a/\x9d\xf6?w\xbe\x9f\x1a/\x9d\xf6?w\xbe\x9f\x1a/\x9d\xf6?'
p344
tp345
bsg221
(dp346
sg223
I01
sbasg186
g189
sbsS'nbnd_occ'
p347
I4
s.