(dp0
S'nbnd'
p1
I9
sS'ecutwfc'
p2
F10.0
sS'structure'
p3
ccopy_reg
_reconstructor
p4
(cpymatgen.core.structure
Structure
p5
c__builtin__
object
p6
Ntp7
Rp8
(dp9
S'_sites'
p10
(lp11
g4
(cpymatgen.core.sites
PeriodicSite
p12
g6
Ntp13
Rp14
(dp15
S'_fcoords'
p16
cnumpy.core.multiarray
_reconstruct
p17
(cnumpy
ndarray
p18
(I0
tp19
S'b'
p20
tp21
Rp22
(I1
(I3
tp23
cnumpy
dtype
p24
(S'f8'
p25
I0
I1
tp26
Rp27
(I3
S'<'
p28
NNNI-1
I-1
I0
tp29
bI00
S'\x00\x00\x00\x00\x00\x00\x00\x00\x00\x00\x00\x00\x00\x00\x00\x00\x00\x00\x00\x00\x00\x00\x00\x00'
p30
tp31
bsS'_species'
p32
g4
(cpymatgen.core.composition
Composition
p33
g6
Ntp34
Rp35
(dp36
S'_elmap'
p37
(dp38
g4
(cpymatgen.core.periodic_table
Element
p39
g6
Ntp40
Rp41
(dp42
S'superconduction_temperature'
p43
V1.083 K
p44
sS'density_of_solid'
p45
V5904 kg m<sup>-3</sup>
p46
sS'molar_volume'
p47
V11.80 cm<sup>3</sup>
p48
sS'bulk_modulus'
p49
NsS'electronic_structure'
p50
V[Ar].3d<sup>10</sup>.4s<sup>2</sup>.4p<sup>1</sup>
p51
sS'critical_temperature'
p52
NsS'melting_point'
p53
V302.91 K
p54
sS'mendeleev_no'
p55
I81
sS'brinell_hardness'
p56
V60 MN m<sup>-2</sup>
p57
sS'_z'
p58
I31
sS'_x'
p59
F1.81
sS'poissons_ratio'
p60
NsS'atomic_radius_calculated'
p61
F1.36
sS'atomic_mass'
p62
g4
(cpymatgen.core.units
FloatWithUnit
p63
c__builtin__
float
p64
F69.723
tp65
Rp66
(dp67
S'_unit'
p68
g4
(cpymatgen.core.units
Unit
p69
g6
Ntp70
Rp71
(dp72
g68
ccollections
defaultdict
p73
(c__builtin__
int
p74
tp75
Rp76
Vamu
p77
I1
ssbsS'_unit_type'
p78
Vmass
p79
sVval
p80
F69.723
sbsS'reflectivity'
p81
NsS'electrical_resistivity'
p82
Vabout  14 10<sup>-8</sup> &Omega; m
p83
sS'liquid_range'
p84
V2174.09 K
p85
sS'rigidity_modulus'
p86
NsS'_symbol'
p87
VGa
p88
sS'van_der_waals_radius'
p89
F1.87
sS'_data'
p90
(dp91
VElectrical resistivity
p92
g83
sVElectronic structure
p93
g51
sVVelocity of sound
p94
V2740 m s<sup>-1</sup>
p95
sVOxidation states
p96
(lp97
I1
aI2
aI3
asVReflectivity
p98
Vno data %
p99
sVPoissons ratio
p100
Vno data
p101
sVMolar volume
p102
g48
sVVan der waals radius
p103
F1.87
sVX
p104
F1.81
sVName
p105
VGallium
p106
sVBulk modulus
p107
Vno data GPa
p108
sVMineral hardness
p109
V1.5
p110
sVAtomic mass
p111
F69.723
sVAtomic no
p112
I31
sVBoiling point
p113
V2477 K
p114
sVCommon oxidation states
p115
(lp116
I3
asVBrinell hardness
p117
g57
sVDensity of solid
p118
g46
sVCritical temperature
p119
Vno data K
p120
sVMelting point
p121
g54
sVMendeleev no
p122
I81
sVCoefficient of linear thermal expansion
p123
V120 x10<sup>-6</sup>K<sup>-1</sup>
p124
sVYoungs modulus
p125
Vno data GPa
p126
sVRigidity modulus
p127
Vno data GPa
p128
sVThermal conductivity
p129
V29 W m<sup>-1</sup> K<sup>-1</sup>
p130
sVLiquid range
p131
g85
sVAtomic radius calculated
p132
F1.36
sVVickers hardness
p133
Vno data MN m<sup>-2</sup>
p134
sVSuperconduction temperature
p135
g44
sVRefractive index
p136
Vno data
p137
sVIonic radii
p138
(dp139
V3
p140
F0.76
ssVAtomic radius
p141
F1.3
ssS'youngs_modulus'
p142
NsS'name'
p143
g106
sS'boiling_point'
p144
g114
sS'thermal_conductivity'
p145
g130
sS'velocity_of_sound'
p146
g95
sS'atomic_radius'
p147
g4
(g63
g64
F1.3
tp148
Rp149
(dp150
g68
g4
(g69
g6
Ntp151
Rp152
(dp153
g68
g73
(g74
tp154
Rp155
Vang
p156
I1
ssbsg78
Vlength
p157
sg80
F1.3
sbsS'mineral_hardness'
p158
g110
sS'vickers_hardness'
p159
NsS'refractive_index'
p160
NsS'coefficient_of_linear_thermal_expansion'
p161
g124
sbI1
ssS'allow_negative'
p162
I00
sS'_natoms'
p163
I1
sbsS'_lattice'
p164
g4
(cpymatgen.core.lattice
Lattice
p165
g6
Ntp166
Rp167
(dp168
S'_metric_tensor'
p169
NsS'_matrix'
p170
g17
(g18
(I0
tp171
g20
tp172
Rp173
(I1
(I3
I3
tp174
g27
I00
S'\x00\x00\x00\x00\x00\x00\x00\x00w\xbe\x9f\x1a/\x9d\x06@w\xbe\x9f\x1a/\x9d\x06@w\xbe\x9f\x1a/\x9d\x06@\x00\x00\x00\x00\x00\x00\x00\x00w\xbe\x9f\x1a/\x9d\x06@w\xbe\x9f\x1a/\x9d\x06@w\xbe\x9f\x1a/\x9d\x06@\x00\x00\x00\x00\x00\x00\x00\x00'
p175
tp176
bsS'_angles'
p177
g17
(g18
(I0
tp178
g20
tp179
Rp180
(I1
(I3
tp181
g27
I00
S'\xff\xff\xff\xff\xff\xffM@\xff\xff\xff\xff\xff\xffM@\xff\xff\xff\xff\xff\xffM@'
p182
tp183
bsS'_lengths'
p184
g17
(g18
(I0
tp185
g20
tp186
Rp187
(I1
(I3
tp188
g27
I00
S'\xb2\xea\xb4|$\xfb\x0f@\xb2\xea\xb4|$\xfb\x0f@\xb2\xea\xb4|$\xfb\x0f@'
p189
tp190
bsS'_inv_matrix'
p191
NsbsS'_coords'
p192
g17
(g18
(I0
tp193
g20
tp194
Rp195
(I1
(I3
tp196
g27
I00
S'\x00\x00\x00\x00\x00\x00\x00\x00\x00\x00\x00\x00\x00\x00\x00\x00\x00\x00\x00\x00\x00\x00\x00\x00'
p197
tp198
bsS'_properties'
p199
(dp200
sS'_is_ordered'
p201
I01
sbag4
(g12
g6
Ntp202
Rp203
(dp204
g16
g17
(g18
(I0
tp205
g20
tp206
Rp207
(I1
(I3
tp208
g27
I00
S'\x00\x00\x00\x00\x00\x00\xd0?\x00\x00\x00\x00\x00\x00\xd0?\x00\x00\x00\x00\x00\x00\xd0?'
p209
tp210
bsg32
g4
(g33
g6
Ntp211
Rp212
(dp213
g37
(dp214
g4
(g39
g6
Ntp215
Rp216
(dp217
S'superconduction_temperature'
p218
NsS'density_of_solid'
p219
V5727 kg m<sup>-3</sup>
p220
sS'molar_volume'
p221
V12.95 cm<sup>3</sup>
p222
sS'bulk_modulus'
p223
V22 GPa
p224
sS'electronic_structure'
p225
V[Ar].3d<sup>10</sup>.4s<sup>2</sup>.4p<sup>3</sup>
p226
sS'critical_temperature'
p227
V1700 K
p228
sS'melting_point'
p229
V1090 K
p230
sS'mendeleev_no'
p231
I89
sS'brinell_hardness'
p232
V1440 MN m<sup>-2</sup>
p233
sg58
I33
sg59
F2.18
sS'poissons_ratio'
p234
NsS'atomic_radius_calculated'
p235
F1.14
sg62
g4
(g63
g64
F74.9216
tp236
Rp237
(dp238
g68
g4
(g69
g6
Ntp239
Rp240
(dp241
g68
g73
(g74
tp242
Rp243
g77
I1
ssbsg78
g79
sg80
F74.9216
sbsS'reflectivity'
p244
NsS'electrical_resistivity'
p245
V33 10<sup>-8</sup> &Omega; m
p246
sS'liquid_range'
p247
V203 K
p248
sS'rigidity_modulus'
p249
Nsg87
VAs
p250
sS'van_der_waals_radius'
p251
F1.85
sg90
(dp252
VElectrical resistivity
p253
g246
sVElectronic structure
p254
g226
sVVelocity of sound
p255
Vno data m s<sup>-1</sup>
p256
sVOxidation states
p257
(lp258
I-3
aI2
aI3
aI5
asVReflectivity
p259
Vno data %
p260
sVPoissons ratio
p261
Vno data
p262
sVMolar volume
p263
g222
sVVan der waals radius
p264
F1.85
sg104
F2.18
sVName
p265
VArsenic
p266
sVBulk modulus
p267
g224
sVMineral hardness
p268
V3.5
p269
sVAtomic mass
p270
F74.9216
sVAtomic no
p271
I33
sVBoiling point
p272
V887 K
p273
sVCommon oxidation states
p274
(lp275
I-3
aI3
aI5
asVBrinell hardness
p276
g233
sVDensity of solid
p277
g220
sVCritical temperature
p278
g228
sVMelting point
p279
g230
sVMendeleev no
p280
I89
sVCoefficient of linear thermal expansion
p281
Vno data x10<sup>-6</sup>K<sup>-1</sup>
p282
sVYoungs modulus
p283
V8 GPa
p284
sVRigidity modulus
p285
Vno data GPa
p286
sVThermal conductivity
p287
V50 W m<sup>-1</sup> K<sup>-1</sup>
p288
sVLiquid range
p289
g248
sVAtomic radius calculated
p290
F1.14
sVVickers hardness
p291
Vno data MN m<sup>-2</sup>
p292
sVSuperconduction temperature
p293
Vno data K
p294
sVRefractive index
p295
V1.001552
p296
sVIonic radii
p297
(dp298
g140
F0.72
sV5
p299
F0.6
ssVAtomic radius
p300
F1.15
ssS'youngs_modulus'
p301
g284
sS'name'
p302
g266
sS'boiling_point'
p303
g273
sS'thermal_conductivity'
p304
g288
sS'velocity_of_sound'
p305
Nsg147
g4
(g63
g64
F1.15
tp306
Rp307
(dp308
g68
g4
(g69
g6
Ntp309
Rp310
(dp311
g68
g73
(g74
tp312
Rp313
g156
I1
ssbsg78
g157
sg80
F1.15
sbsS'mineral_hardness'
p314
g269
sS'vickers_hardness'
p315
NsS'refractive_index'
p316
g296
sS'coefficient_of_linear_thermal_expansion'
p317
NsbI1
ssg162
I00
sg163
I1
sbsg164
g167
sg192
g17
(g18
(I0
tp318
g20
tp319
Rp320
(I1
(I3
tp321
g27
I00
S'w\xbe\x9f\x1a/\x9d\xf6?w\xbe\x9f\x1a/\x9d\xf6?w\xbe\x9f\x1a/\x9d\xf6?'
p322
tp323
bsg199
(dp324
sg201
I01
sbasg164
g167
sbsS'epsmat_fname'
p325
S'11-Workflow/epsilon/epsmat'
p326
sS'nproc_per_node'
p327
I8
sS'pseudo_dir'
p328
S'../../Data/Pseudos'
p329
sS'mpirun'
p330
g330
sS'wfn_co_fname'
p331
S'11-Workflow/wfn_co/wfn_co.cplx'
p332
sS'ngkpt'
p333
(lp334
I2
aI2
aI2
asS'ibnd_min'
p335
I1
sS'prefix'
p336
S'GaAs'
p337
sS'nproc_per_node_flag'
p338
S'--npernode'
p339
sS'nproc'
p340
I8
sS'vxc_dat_fname'
p341
S'11-Workflow/wfn_co/vxc.dat'
p342
sS'extra_lines'
p343
(lp344
S'screening_semiconductor'
p345
asS'rho_fname'
p346
S'11-Workflow/wfn_co/rho.real'
p347
sS'eps0mat_fname'
p348
S'11-Workflow/epsilon/eps0mat'
p349
sS'ibnd_max'
p350
I8
sS'nproc_flag'
p351
S'-n'
p352
sS'pseudos'
p353
(lp354
S'31-Ga.PBE.UPF'
p355
aS'33-As.PBE.UPF'
p356
as.