(dp0
S'nbnd_cond_fi'
p1
I4
sS'absorption_extra_variables'
p2
(dp3
S'energy_resolution'
p4
F0.15
ssS'dft_flavor'
p5
S'abinit'
p6
sS'mpirun'
p7
g7
sS'nband'
p8
I9
sS'ngkpt'
p9
(lp10
I4
aI4
aI4
asS'prefix'
p11
S'GaAs'
p12
sS'ecuteps'
p13
F10.0
sS'kernel_extra_lines'
p14
(lp15
S'use_symmetries_coarse_grid'
p16
aS'screening_semiconductor'
p17
asS'ibnd_max'
p18
I8
sS'absorption_extra_lines'
p19
(lp20
g16
aS'no_symmetries_fine_grid'
p21
aS'no_symmetries_shifted_grid'
p22
ag17
aS'use_velocity'
p23
aS'gaussian_broadening'
p24
aS'eqp_co_corrections'
p25
asS'qshift'
p26
(lp27
F0.0
aF0.0
aF0.0
asS'kshift'
p28
(lp29
F0.0
aF0.0
aF0.0
asS'vxc_fname'
p30
S'33-BSE/01-Density/out_data/odat_VXC'
p31
sS'nbnd_val_fi'
p32
I4
sS'ecut'
p33
F5.0
sS'pseudos'
p34
(lp35
S'31-Ga.pspnc'
p36
aS'33-As.pspnc'
p37
asS'nproc_per_node'
p38
I2
sS'pseudo_dir'
p39
S'../../Data/Pseudos'
p40
sS'symkpt'
p41
I00
sS'nbnd_cond_co'
p42
I4
sS'nproc'
p43
I2
sS'nbnd_cond'
p44
I4
sS'nproc_flag'
p45
S'-n'
p46
sS'structure'
p47
ccopy_reg
_reconstructor
p48
(cpymatgen.core.structure
Structure
p49
c__builtin__
object
p50
Ntp51
Rp52
(dp53
S'_sites'
p54
(lp55
g48
(cpymatgen.core.sites
PeriodicSite
p56
g50
Ntp57
Rp58
(dp59
S'_fcoords'
p60
cnumpy.core.multiarray
_reconstruct
p61
(cnumpy
ndarray
p62
(I0
tp63
S'b'
p64
tp65
Rp66
(I1
(I3
tp67
cnumpy
dtype
p68
(S'f8'
p69
I0
I1
tp70
Rp71
(I3
S'<'
p72
NNNI-1
I-1
I0
tp73
bI00
S'\x00\x00\x00\x00\x00\x00\x00\x00\x00\x00\x00\x00\x00\x00\x00\x00\x00\x00\x00\x00\x00\x00\x00\x00'
p74
tp75
bsS'_species'
p76
g48
(cpymatgen.core.composition
Composition
p77
g50
Ntp78
Rp79
(dp80
S'_elmap'
p81
(dp82
g48
(cpymatgen.core.periodic_table
Element
p83
g50
Ntp84
Rp85
(dp86
S'superconduction_temperature'
p87
V1.083 K
p88
sS'density_of_solid'
p89
V5904 kg m<sup>-3</sup>
p90
sS'molar_volume'
p91
V11.80 cm<sup>3</sup>
p92
sS'bulk_modulus'
p93
NsS'electronic_structure'
p94
V[Ar].3d<sup>10</sup>.4s<sup>2</sup>.4p<sup>1</sup>
p95
sS'critical_temperature'
p96
NsS'melting_point'
p97
V302.91 K
p98
sS'mendeleev_no'
p99
I81
sS'brinell_hardness'
p100
V60 MN m<sup>-2</sup>
p101
sS'_z'
p102
I31
sS'_x'
p103
F1.81
sS'poissons_ratio'
p104
NsS'atomic_radius_calculated'
p105
F1.36
sS'atomic_mass'
p106
g48
(cpymatgen.core.units
FloatWithUnit
p107
c__builtin__
float
p108
F69.723
tp109
Rp110
(dp111
S'_unit'
p112
g48
(cpymatgen.core.units
Unit
p113
g50
Ntp114
Rp115
(dp116
g112
ccollections
defaultdict
p117
(c__builtin__
int
p118
tp119
Rp120
Vamu
p121
I1
ssbsS'_unit_type'
p122
Vmass
p123
sVval
p124
F69.723
sbsS'reflectivity'
p125
NsS'electrical_resistivity'
p126
Vabout  14 10<sup>-8</sup> &Omega; m
p127
sS'liquid_range'
p128
V2174.09 K
p129
sS'rigidity_modulus'
p130
NsS'_symbol'
p131
VGa
p132
sS'van_der_waals_radius'
p133
F1.87
sS'_data'
p134
(dp135
VElectrical resistivity
p136
g127
sVElectronic structure
p137
g95
sVVelocity of sound
p138
V2740 m s<sup>-1</sup>
p139
sVOxidation states
p140
(lp141
I1
aI2
aI3
asVReflectivity
p142
Vno data %
p143
sVPoissons ratio
p144
Vno data
p145
sVMolar volume
p146
g92
sVVan der waals radius
p147
F1.87
sVX
p148
F1.81
sVName
p149
VGallium
p150
sVBulk modulus
p151
Vno data GPa
p152
sVMineral hardness
p153
V1.5
p154
sVAtomic mass
p155
F69.723
sVAtomic no
p156
I31
sVBoiling point
p157
V2477 K
p158
sVCommon oxidation states
p159
(lp160
I3
asVBrinell hardness
p161
g101
sVDensity of solid
p162
g90
sVCritical temperature
p163
Vno data K
p164
sVMelting point
p165
g98
sVMendeleev no
p166
I81
sVCoefficient of linear thermal expansion
p167
V120 x10<sup>-6</sup>K<sup>-1</sup>
p168
sVYoungs modulus
p169
Vno data GPa
p170
sVRigidity modulus
p171
Vno data GPa
p172
sVThermal conductivity
p173
V29 W m<sup>-1</sup> K<sup>-1</sup>
p174
sVLiquid range
p175
g129
sVAtomic radius calculated
p176
F1.36
sVVickers hardness
p177
Vno data MN m<sup>-2</sup>
p178
sVSuperconduction temperature
p179
g88
sVRefractive index
p180
Vno data
p181
sVIonic radii
p182
(dp183
V3
p184
F0.76
ssVAtomic radius
p185
F1.3
ssS'youngs_modulus'
p186
NsS'name'
p187
g150
sS'boiling_point'
p188
g158
sS'thermal_conductivity'
p189
g174
sS'velocity_of_sound'
p190
g139
sS'atomic_radius'
p191
g48
(g107
g108
F1.3
tp192
Rp193
(dp194
g112
g48
(g113
g50
Ntp195
Rp196
(dp197
g112
g117
(g118
tp198
Rp199
Vang
p200
I1
ssbsg122
Vlength
p201
sg124
F1.3
sbsS'mineral_hardness'
p202
g154
sS'vickers_hardness'
p203
NsS'refractive_index'
p204
NsS'coefficient_of_linear_thermal_expansion'
p205
g168
sbI1
ssS'allow_negative'
p206
I00
sS'_natoms'
p207
I1
sbsS'_lattice'
p208
g48
(cpymatgen.core.lattice
Lattice
p209
g50
Ntp210
Rp211
(dp212
S'_metric_tensor'
p213
NsS'_matrix'
p214
g61
(g62
(I0
tp215
g64
tp216
Rp217
(I1
(I3
I3
tp218
g71
I00
S'\x00\x00\x00\x00\x00\x00\x00\x00w\xbe\x9f\x1a/\x9d\x06@w\xbe\x9f\x1a/\x9d\x06@w\xbe\x9f\x1a/\x9d\x06@\x00\x00\x00\x00\x00\x00\x00\x00w\xbe\x9f\x1a/\x9d\x06@w\xbe\x9f\x1a/\x9d\x06@w\xbe\x9f\x1a/\x9d\x06@\x00\x00\x00\x00\x00\x00\x00\x00'
p219
tp220
bsS'_angles'
p221
g61
(g62
(I0
tp222
g64
tp223
Rp224
(I1
(I3
tp225
g71
I00
S'\xff\xff\xff\xff\xff\xffM@\xff\xff\xff\xff\xff\xffM@\xff\xff\xff\xff\xff\xffM@'
p226
tp227
bsS'_lengths'
p228
g61
(g62
(I0
tp229
g64
tp230
Rp231
(I1
(I3
tp232
g71
I00
S'\xb2\xea\xb4|$\xfb\x0f@\xb2\xea\xb4|$\xfb\x0f@\xb2\xea\xb4|$\xfb\x0f@'
p233
tp234
bsS'_inv_matrix'
p235
NsbsS'_coords'
p236
g61
(g62
(I0
tp237
g64
tp238
Rp239
(I1
(I3
tp240
g71
I00
S'\x00\x00\x00\x00\x00\x00\x00\x00\x00\x00\x00\x00\x00\x00\x00\x00\x00\x00\x00\x00\x00\x00\x00\x00'
p241
tp242
bsS'_properties'
p243
(dp244
sS'_is_ordered'
p245
I01
sbag48
(g56
g50
Ntp246
Rp247
(dp248
g60
g61
(g62
(I0
tp249
g64
tp250
Rp251
(I1
(I3
tp252
g71
I00
S'\x00\x00\x00\x00\x00\x00\xd0?\x00\x00\x00\x00\x00\x00\xd0?\x00\x00\x00\x00\x00\x00\xd0?'
p253
tp254
bsg76
g48
(g77
g50
Ntp255
Rp256
(dp257
g81
(dp258
g48
(g83
g50
Ntp259
Rp260
(dp261
S'superconduction_temperature'
p262
NsS'density_of_solid'
p263
V5727 kg m<sup>-3</sup>
p264
sS'molar_volume'
p265
V12.95 cm<sup>3</sup>
p266
sS'bulk_modulus'
p267
V22 GPa
p268
sS'electronic_structure'
p269
V[Ar].3d<sup>10</sup>.4s<sup>2</sup>.4p<sup>3</sup>
p270
sS'critical_temperature'
p271
V1700 K
p272
sS'melting_point'
p273
V1090 K
p274
sS'mendeleev_no'
p275
I89
sS'brinell_hardness'
p276
V1440 MN m<sup>-2</sup>
p277
sg102
I33
sg103
F2.18
sS'poissons_ratio'
p278
NsS'atomic_radius_calculated'
p279
F1.14
sg106
g48
(g107
g108
F74.9216
tp280
Rp281
(dp282
g112
g48
(g113
g50
Ntp283
Rp284
(dp285
g112
g117
(g118
tp286
Rp287
g121
I1
ssbsg122
g123
sg124
F74.9216
sbsS'reflectivity'
p288
NsS'electrical_resistivity'
p289
V33 10<sup>-8</sup> &Omega; m
p290
sS'liquid_range'
p291
V203 K
p292
sS'rigidity_modulus'
p293
Nsg131
VAs
p294
sS'van_der_waals_radius'
p295
F1.85
sg134
(dp296
VElectrical resistivity
p297
g290
sVElectronic structure
p298
g270
sVVelocity of sound
p299
Vno data m s<sup>-1</sup>
p300
sVOxidation states
p301
(lp302
I-3
aI2
aI3
aI5
asVReflectivity
p303
Vno data %
p304
sVPoissons ratio
p305
Vno data
p306
sVMolar volume
p307
g266
sVVan der waals radius
p308
F1.85
sg148
F2.18
sVName
p309
VArsenic
p310
sVBulk modulus
p311
g268
sVMineral hardness
p312
V3.5
p313
sVAtomic mass
p314
F74.9216
sVAtomic no
p315
I33
sVBoiling point
p316
V887 K
p317
sVCommon oxidation states
p318
(lp319
I-3
aI3
aI5
asVBrinell hardness
p320
g277
sVDensity of solid
p321
g264
sVCritical temperature
p322
g272
sVMelting point
p323
g274
sVMendeleev no
p324
I89
sVCoefficient of linear thermal expansion
p325
Vno data x10<sup>-6</sup>K<sup>-1</sup>
p326
sVYoungs modulus
p327
V8 GPa
p328
sVRigidity modulus
p329
Vno data GPa
p330
sVThermal conductivity
p331
V50 W m<sup>-1</sup> K<sup>-1</sup>
p332
sVLiquid range
p333
g292
sVAtomic radius calculated
p334
F1.14
sVVickers hardness
p335
Vno data MN m<sup>-2</sup>
p336
sVSuperconduction temperature
p337
Vno data K
p338
sVRefractive index
p339
V1.001552
p340
sVIonic radii
p341
(dp342
g184
F0.72
sV5
p343
F0.6
ssVAtomic radius
p344
F1.15
ssS'youngs_modulus'
p345
g328
sS'name'
p346
g310
sS'boiling_point'
p347
g317
sS'thermal_conductivity'
p348
g332
sS'velocity_of_sound'
p349
Nsg191
g48
(g107
g108
F1.15
tp350
Rp351
(dp352
g112
g48
(g113
g50
Ntp353
Rp354
(dp355
g112
g117
(g118
tp356
Rp357
g200
I1
ssbsg122
g201
sg124
F1.15
sbsS'mineral_hardness'
p358
g313
sS'vickers_hardness'
p359
NsS'refractive_index'
p360
g340
sS'coefficient_of_linear_thermal_expansion'
p361
NsbI1
ssg206
I00
sg207
I1
sbsg208
g211
sg236
g61
(g62
(I0
tp362
g64
tp363
Rp364
(I1
(I3
tp365
g71
I00
S'w\xbe\x9f\x1a/\x9d\xf6?w\xbe\x9f\x1a/\x9d\xf6?w\xbe\x9f\x1a/\x9d\xf6?'
p366
tp367
bsg243
(dp368
sg245
I01
sbasg208
g211
sbsS'charge_density_fname'
p369
S'33-BSE/01-Density/out_data/odat_DEN'
p370
sS'ibnd_min'
p371
I1
sS'sigma_extra_lines'
p372
(lp373
g17
asS'nbnd_val'
p374
I4
sS'nbnd_val_co'
p375
I4
sS'nproc_per_node_flag'
p376
S'--npernode'
p377
s.