(dp0
S'dft_flavor'
p1
S'abinit'
p2
sS'mpirun'
p3
g3
sS'qshift'
p4
(lp5
F0.001
aF0.0
aF0.0
asS'prefix'
p6
S'GaAs'
p7
sS'ecuteps'
p8
F10.0
sS'extra_lines'
p9
(lp10
sS'rho_fname'
p11
S'32-GW/04-Wfn_co/Wavefunctions/rho.cplx'
p12
sS'ibnd_max'
p13
I8
sS'wfn_co_fname'
p14
S'32-GW/04-Wfn_co/Wavefunctions/wfn.cplx'
p15
sS'ngkpt'
p16
(lp17
I2
aI2
aI2
asS'vxc_fname'
p18
S'32-GW/04-Wfn_co/Wavefunctions/vxc.cplx'
p19
sS'ecut'
p20
F5.0
sS'pseudos'
p21
(lp22
S'31-Ga.pspnc'
p23
aS'33-As.pspnc'
p24
asS'nproc_per_node'
p25
I2
sS'pseudo_dir'
p26
S'../../Data/Pseudos'
p27
sS'wfn_fname'
p28
S'32-GW/02-Wfn/Wavefunctions/wfn.cplx'
p29
sS'nproc'
p30
I2
sS'nproc_flag'
p31
S'-n'
p32
sS'structure'
p33
ccopy_reg
_reconstructor
p34
(cpymatgen.core.structure
Structure
p35
c__builtin__
object
p36
Ntp37
Rp38
(dp39
S'_sites'
p40
(lp41
g34
(cpymatgen.core.sites
PeriodicSite
p42
g36
Ntp43
Rp44
(dp45
S'_fcoords'
p46
cnumpy.core.multiarray
_reconstruct
p47
(cnumpy
ndarray
p48
(I0
tp49
S'b'
p50
tp51
Rp52
(I1
(I3
tp53
cnumpy
dtype
p54
(S'f8'
p55
I0
I1
tp56
Rp57
(I3
S'<'
p58
NNNI-1
I-1
I0
tp59
bI00
S'\x00\x00\x00\x00\x00\x00\x00\x00\x00\x00\x00\x00\x00\x00\x00\x00\x00\x00\x00\x00\x00\x00\x00\x00'
p60
tp61
bsS'_species'
p62
g34
(cpymatgen.core.composition
Composition
p63
g36
Ntp64
Rp65
(dp66
S'_elmap'
p67
(dp68
g34
(cpymatgen.core.periodic_table
Element
p69
g36
Ntp70
Rp71
(dp72
S'superconduction_temperature'
p73
V1.083 K
p74
sS'density_of_solid'
p75
V5904 kg m<sup>-3</sup>
p76
sS'molar_volume'
p77
V11.80 cm<sup>3</sup>
p78
sS'bulk_modulus'
p79
NsS'electronic_structure'
p80
V[Ar].3d<sup>10</sup>.4s<sup>2</sup>.4p<sup>1</sup>
p81
sS'critical_temperature'
p82
NsS'melting_point'
p83
V302.91 K
p84
sS'mendeleev_no'
p85
I81
sS'brinell_hardness'
p86
V60 MN m<sup>-2</sup>
p87
sS'_z'
p88
I31
sS'_x'
p89
F1.81
sS'poissons_ratio'
p90
NsS'atomic_radius_calculated'
p91
F1.36
sS'atomic_mass'
p92
g34
(cpymatgen.core.units
FloatWithUnit
p93
c__builtin__
float
p94
F69.723
tp95
Rp96
(dp97
S'_unit'
p98
g34
(cpymatgen.core.units
Unit
p99
g36
Ntp100
Rp101
(dp102
g98
ccollections
defaultdict
p103
(c__builtin__
int
p104
tp105
Rp106
Vamu
p107
I1
ssbsS'_unit_type'
p108
Vmass
p109
sVval
p110
F69.723
sbsS'reflectivity'
p111
NsS'electrical_resistivity'
p112
Vabout  14 10<sup>-8</sup> &Omega; m
p113
sS'liquid_range'
p114
V2174.09 K
p115
sS'rigidity_modulus'
p116
NsS'_symbol'
p117
VGa
p118
sS'van_der_waals_radius'
p119
F1.87
sS'_data'
p120
(dp121
VElectrical resistivity
p122
g113
sVElectronic structure
p123
g81
sVVelocity of sound
p124
V2740 m s<sup>-1</sup>
p125
sVOxidation states
p126
(lp127
I1
aI2
aI3
asVReflectivity
p128
Vno data %
p129
sVPoissons ratio
p130
Vno data
p131
sVMolar volume
p132
g78
sVVan der waals radius
p133
F1.87
sVX
p134
F1.81
sVName
p135
VGallium
p136
sVBulk modulus
p137
Vno data GPa
p138
sVMineral hardness
p139
V1.5
p140
sVAtomic mass
p141
F69.723
sVAtomic no
p142
I31
sVBoiling point
p143
V2477 K
p144
sVCommon oxidation states
p145
(lp146
I3
asVBrinell hardness
p147
g87
sVDensity of solid
p148
g76
sVCritical temperature
p149
Vno data K
p150
sVMelting point
p151
g84
sVMendeleev no
p152
I81
sVCoefficient of linear thermal expansion
p153
V120 x10<sup>-6</sup>K<sup>-1</sup>
p154
sVYoungs modulus
p155
Vno data GPa
p156
sVRigidity modulus
p157
Vno data GPa
p158
sVThermal conductivity
p159
V29 W m<sup>-1</sup> K<sup>-1</sup>
p160
sVLiquid range
p161
g115
sVAtomic radius calculated
p162
F1.36
sVVickers hardness
p163
Vno data MN m<sup>-2</sup>
p164
sVSuperconduction temperature
p165
g74
sVRefractive index
p166
Vno data
p167
sVIonic radii
p168
(dp169
V3
p170
F0.76
ssVAtomic radius
p171
F1.3
ssS'youngs_modulus'
p172
NsS'name'
p173
g136
sS'boiling_point'
p174
g144
sS'thermal_conductivity'
p175
g160
sS'velocity_of_sound'
p176
g125
sS'atomic_radius'
p177
g34
(g93
g94
F1.3
tp178
Rp179
(dp180
g98
g34
(g99
g36
Ntp181
Rp182
(dp183
g98
g103
(g104
tp184
Rp185
Vang
p186
I1
ssbsg108
Vlength
p187
sg110
F1.3
sbsS'mineral_hardness'
p188
g140
sS'vickers_hardness'
p189
NsS'refractive_index'
p190
NsS'coefficient_of_linear_thermal_expansion'
p191
g154
sbI1
ssS'allow_negative'
p192
I00
sS'_natoms'
p193
I1
sbsS'_lattice'
p194
g34
(cpymatgen.core.lattice
Lattice
p195
g36
Ntp196
Rp197
(dp198
S'_metric_tensor'
p199
NsS'_matrix'
p200
g47
(g48
(I0
tp201
g50
tp202
Rp203
(I1
(I3
I3
tp204
g57
I00
S'\x00\x00\x00\x00\x00\x00\x00\x00w\xbe\x9f\x1a/\x9d\x06@w\xbe\x9f\x1a/\x9d\x06@w\xbe\x9f\x1a/\x9d\x06@\x00\x00\x00\x00\x00\x00\x00\x00w\xbe\x9f\x1a/\x9d\x06@w\xbe\x9f\x1a/\x9d\x06@w\xbe\x9f\x1a/\x9d\x06@\x00\x00\x00\x00\x00\x00\x00\x00'
p205
tp206
bsS'_angles'
p207
g47
(g48
(I0
tp208
g50
tp209
Rp210
(I1
(I3
tp211
g57
I00
S'\xff\xff\xff\xff\xff\xffM@\xff\xff\xff\xff\xff\xffM@\xff\xff\xff\xff\xff\xffM@'
p212
tp213
bsS'_lengths'
p214
g47
(g48
(I0
tp215
g50
tp216
Rp217
(I1
(I3
tp218
g57
I00
S'\xb2\xea\xb4|$\xfb\x0f@\xb2\xea\xb4|$\xfb\x0f@\xb2\xea\xb4|$\xfb\x0f@'
p219
tp220
bsS'_inv_matrix'
p221
NsbsS'_coords'
p222
g47
(g48
(I0
tp223
g50
tp224
Rp225
(I1
(I3
tp226
g57
I00
S'\x00\x00\x00\x00\x00\x00\x00\x00\x00\x00\x00\x00\x00\x00\x00\x00\x00\x00\x00\x00\x00\x00\x00\x00'
p227
tp228
bsS'_properties'
p229
(dp230
sS'_is_ordered'
p231
I01
sbag34
(g42
g36
Ntp232
Rp233
(dp234
g46
g47
(g48
(I0
tp235
g50
tp236
Rp237
(I1
(I3
tp238
g57
I00
S'\x00\x00\x00\x00\x00\x00\xd0?\x00\x00\x00\x00\x00\x00\xd0?\x00\x00\x00\x00\x00\x00\xd0?'
p239
tp240
bsg62
g34
(g63
g36
Ntp241
Rp242
(dp243
g67
(dp244
g34
(g69
g36
Ntp245
Rp246
(dp247
S'superconduction_temperature'
p248
NsS'density_of_solid'
p249
V5727 kg m<sup>-3</sup>
p250
sS'molar_volume'
p251
V12.95 cm<sup>3</sup>
p252
sS'bulk_modulus'
p253
V22 GPa
p254
sS'electronic_structure'
p255
V[Ar].3d<sup>10</sup>.4s<sup>2</sup>.4p<sup>3</sup>
p256
sS'critical_temperature'
p257
V1700 K
p258
sS'melting_point'
p259
V1090 K
p260
sS'mendeleev_no'
p261
I89
sS'brinell_hardness'
p262
V1440 MN m<sup>-2</sup>
p263
sg88
I33
sg89
F2.18
sS'poissons_ratio'
p264
NsS'atomic_radius_calculated'
p265
F1.14
sg92
g34
(g93
g94
F74.9216
tp266
Rp267
(dp268
g98
g34
(g99
g36
Ntp269
Rp270
(dp271
g98
g103
(g104
tp272
Rp273
g107
I1
ssbsg108
g109
sg110
F74.9216
sbsS'reflectivity'
p274
NsS'electrical_resistivity'
p275
V33 10<sup>-8</sup> &Omega; m
p276
sS'liquid_range'
p277
V203 K
p278
sS'rigidity_modulus'
p279
Nsg117
VAs
p280
sS'van_der_waals_radius'
p281
F1.85
sg120
(dp282
VElectrical resistivity
p283
g276
sVElectronic structure
p284
g256
sVVelocity of sound
p285
Vno data m s<sup>-1</sup>
p286
sVOxidation states
p287
(lp288
I-3
aI2
aI3
aI5
asVReflectivity
p289
Vno data %
p290
sVPoissons ratio
p291
Vno data
p292
sVMolar volume
p293
g252
sVVan der waals radius
p294
F1.85
sg134
F2.18
sVName
p295
VArsenic
p296
sVBulk modulus
p297
g254
sVMineral hardness
p298
V3.5
p299
sVAtomic mass
p300
F74.9216
sVAtomic no
p301
I33
sVBoiling point
p302
V887 K
p303
sVCommon oxidation states
p304
(lp305
I-3
aI3
aI5
asVBrinell hardness
p306
g263
sVDensity of solid
p307
g250
sVCritical temperature
p308
g258
sVMelting point
p309
g260
sVMendeleev no
p310
I89
sVCoefficient of linear thermal expansion
p311
Vno data x10<sup>-6</sup>K<sup>-1</sup>
p312
sVYoungs modulus
p313
V8 GPa
p314
sVRigidity modulus
p315
Vno data GPa
p316
sVThermal conductivity
p317
V50 W m<sup>-1</sup> K<sup>-1</sup>
p318
sVLiquid range
p319
g278
sVAtomic radius calculated
p320
F1.14
sVVickers hardness
p321
Vno data MN m<sup>-2</sup>
p322
sVSuperconduction temperature
p323
Vno data K
p324
sVRefractive index
p325
V1.001552
p326
sVIonic radii
p327
(dp328
g170
F0.72
sV5
p329
F0.6
ssVAtomic radius
p330
F1.15
ssS'youngs_modulus'
p331
g314
sS'name'
p332
g296
sS'boiling_point'
p333
g303
sS'thermal_conductivity'
p334
g318
sS'velocity_of_sound'
p335
Nsg177
g34
(g93
g94
F1.15
tp336
Rp337
(dp338
g98
g34
(g99
g36
Ntp339
Rp340
(dp341
g98
g103
(g104
tp342
Rp343
g186
I1
ssbsg108
g187
sg110
F1.15
sbsS'mineral_hardness'
p344
g299
sS'vickers_hardness'
p345
NsS'refractive_index'
p346
g326
sS'coefficient_of_linear_thermal_expansion'
p347
NsbI1
ssg192
I00
sg193
I1
sbsg194
g197
sg222
g47
(g48
(I0
tp348
g50
tp349
Rp350
(I1
(I3
tp351
g57
I00
S'w\xbe\x9f\x1a/\x9d\xf6?w\xbe\x9f\x1a/\x9d\xf6?w\xbe\x9f\x1a/\x9d\xf6?'
p352
tp353
bsg229
(dp354
sg231
I01
sbasg194
g197
sbsS'wfnq_fname'
p355
S'32-GW/03-Wfnq/Wavefunctions/wfn.cplx'
p356
sS'ibnd_min'
p357
I1
sS'nproc_per_node_flag'
p358
S'--npernode'
p359
sS'extra_variables'
p360
(dp361
s.