(dp0
S'mpirun'
p1
g1
sS'ngkpt'
p2
(lp3
I2
aI2
aI2
asS'prefix'
p4
S'GaAs'
p5
sS'ecuteps'
p6
F10.0
sS'nbnd_epsilon'
p7
I8
sS'ibnd_max'
p8
I8
sS'nbnd'
p9
I10
sS'nbnd_sigma'
p10
I8
sS'qshift'
p11
(lp12
F0.001
aF0.0
aF0.0
asS'kshift'
p13
(lp14
F0.5
aF0.5
aF0.5
asS'epsilon_extra_lines'
p15
(lp16
sS'sigma_extra_variables'
p17
(dp18
sS'pseudos'
p19
(lp20
S'31-Ga.PBE.UPF'
p21
aS'33-As.PBE.UPF'
p22
asS'nproc_per_node'
p23
I2
sS'pseudo_dir'
p24
S'Pseudos'
p25
sS'ecutsigx'
p26
F15.0
sS'nproc'
p27
I2
sS'ecutwfc'
p28
F10.0
sS'nproc_flag'
p29
S'-n'
p30
sS'structure'
p31
ccopy_reg
_reconstructor
p32
(cpymatgen.core.structure
Structure
p33
c__builtin__
object
p34
Ntp35
Rp36
(dp37
S'_sites'
p38
(lp39
g32
(cpymatgen.core.sites
PeriodicSite
p40
g34
Ntp41
Rp42
(dp43
S'_fcoords'
p44
cnumpy.core.multiarray
_reconstruct
p45
(cnumpy
ndarray
p46
(I0
tp47
S'b'
p48
tp49
Rp50
(I1
(I3
tp51
cnumpy
dtype
p52
(S'f8'
p53
I0
I1
tp54
Rp55
(I3
S'<'
p56
NNNI-1
I-1
I0
tp57
bI00
S'\x00\x00\x00\x00\x00\x00\x00\x00\x00\x00\x00\x00\x00\x00\x00\x00\x00\x00\x00\x00\x00\x00\x00\x00'
p58
tp59
bsS'_species'
p60
g32
(cpymatgen.core.composition
Composition
p61
g34
Ntp62
Rp63
(dp64
S'_elmap'
p65
(dp66
g32
(cpymatgen.core.periodic_table
Element
p67
g34
Ntp68
Rp69
(dp70
S'superconduction_temperature'
p71
V1.083 K
p72
sS'density_of_solid'
p73
V5904 kg m<sup>-3</sup>
p74
sS'molar_volume'
p75
V11.80 cm<sup>3</sup>
p76
sS'bulk_modulus'
p77
NsS'electronic_structure'
p78
V[Ar].3d<sup>10</sup>.4s<sup>2</sup>.4p<sup>1</sup>
p79
sS'critical_temperature'
p80
NsS'melting_point'
p81
V302.91 K
p82
sS'mendeleev_no'
p83
I81
sS'brinell_hardness'
p84
V60 MN m<sup>-2</sup>
p85
sS'_z'
p86
I31
sS'_x'
p87
F1.81
sS'poissons_ratio'
p88
NsS'atomic_radius_calculated'
p89
F1.36
sS'atomic_mass'
p90
g32
(cpymatgen.core.units
FloatWithUnit
p91
c__builtin__
float
p92
F69.723
tp93
Rp94
(dp95
S'_unit'
p96
g32
(cpymatgen.core.units
Unit
p97
g34
Ntp98
Rp99
(dp100
g96
ccollections
defaultdict
p101
(c__builtin__
int
p102
tp103
Rp104
Vamu
p105
I1
ssbsS'_unit_type'
p106
Vmass
p107
sVval
p108
F69.723
sbsS'reflectivity'
p109
NsS'electrical_resistivity'
p110
Vabout  14 10<sup>-8</sup> &Omega; m
p111
sS'liquid_range'
p112
V2174.09 K
p113
sS'rigidity_modulus'
p114
NsS'_symbol'
p115
VGa
p116
sS'van_der_waals_radius'
p117
F1.87
sS'_data'
p118
(dp119
VElectrical resistivity
p120
g111
sVElectronic structure
p121
g79
sVVelocity of sound
p122
V2740 m s<sup>-1</sup>
p123
sVOxidation states
p124
(lp125
I1
aI2
aI3
asVReflectivity
p126
Vno data %
p127
sVPoissons ratio
p128
Vno data
p129
sVMolar volume
p130
g76
sVVan der waals radius
p131
F1.87
sVX
p132
F1.81
sVName
p133
VGallium
p134
sVBulk modulus
p135
Vno data GPa
p136
sVMineral hardness
p137
V1.5
p138
sVAtomic mass
p139
F69.723
sVAtomic no
p140
I31
sVBoiling point
p141
V2477 K
p142
sVCommon oxidation states
p143
(lp144
I3
asVBrinell hardness
p145
g85
sVDensity of solid
p146
g74
sVCritical temperature
p147
Vno data K
p148
sVMelting point
p149
g82
sVMendeleev no
p150
I81
sVCoefficient of linear thermal expansion
p151
V120 x10<sup>-6</sup>K<sup>-1</sup>
p152
sVYoungs modulus
p153
Vno data GPa
p154
sVRigidity modulus
p155
Vno data GPa
p156
sVThermal conductivity
p157
V29 W m<sup>-1</sup> K<sup>-1</sup>
p158
sVLiquid range
p159
g113
sVAtomic radius calculated
p160
F1.36
sVVickers hardness
p161
Vno data MN m<sup>-2</sup>
p162
sVSuperconduction temperature
p163
g72
sVRefractive index
p164
Vno data
p165
sVIonic radii
p166
(dp167
V3
p168
F0.76
ssVAtomic radius
p169
F1.3
ssS'youngs_modulus'
p170
NsS'name'
p171
g134
sS'boiling_point'
p172
g142
sS'thermal_conductivity'
p173
g158
sS'velocity_of_sound'
p174
g123
sS'atomic_radius'
p175
g32
(g91
g92
F1.3
tp176
Rp177
(dp178
g96
g32
(g97
g34
Ntp179
Rp180
(dp181
g96
g101
(g102
tp182
Rp183
Vang
p184
I1
ssbsg106
Vlength
p185
sg108
F1.3
sbsS'mineral_hardness'
p186
g138
sS'vickers_hardness'
p187
NsS'refractive_index'
p188
NsS'coefficient_of_linear_thermal_expansion'
p189
g152
sbI1
ssS'allow_negative'
p190
I00
sS'_natoms'
p191
I1
sbsS'_lattice'
p192
g32
(cpymatgen.core.lattice
Lattice
p193
g34
Ntp194
Rp195
(dp196
S'_metric_tensor'
p197
NsS'_matrix'
p198
g45
(g46
(I0
tp199
g48
tp200
Rp201
(I1
(I3
I3
tp202
g55
I00
S'\x00\x00\x00\x00\x00\x00\x00\x00w\xbe\x9f\x1a/\x9d\x06@w\xbe\x9f\x1a/\x9d\x06@w\xbe\x9f\x1a/\x9d\x06@\x00\x00\x00\x00\x00\x00\x00\x00w\xbe\x9f\x1a/\x9d\x06@w\xbe\x9f\x1a/\x9d\x06@w\xbe\x9f\x1a/\x9d\x06@\x00\x00\x00\x00\x00\x00\x00\x00'
p203
tp204
bsS'_angles'
p205
g45
(g46
(I0
tp206
g48
tp207
Rp208
(I1
(I3
tp209
g55
I00
S'\xff\xff\xff\xff\xff\xffM@\xff\xff\xff\xff\xff\xffM@\xff\xff\xff\xff\xff\xffM@'
p210
tp211
bsS'_lengths'
p212
g45
(g46
(I0
tp213
g48
tp214
Rp215
(I1
(I3
tp216
g55
I00
S'\xb2\xea\xb4|$\xfb\x0f@\xb2\xea\xb4|$\xfb\x0f@\xb2\xea\xb4|$\xfb\x0f@'
p217
tp218
bsS'_inv_matrix'
p219
NsbsS'_coords'
p220
g45
(g46
(I0
tp221
g48
tp222
Rp223
(I1
(I3
tp224
g55
I00
S'\x00\x00\x00\x00\x00\x00\x00\x00\x00\x00\x00\x00\x00\x00\x00\x00\x00\x00\x00\x00\x00\x00\x00\x00'
p225
tp226
bsS'_properties'
p227
(dp228
sS'_is_ordered'
p229
I01
sbag32
(g40
g34
Ntp230
Rp231
(dp232
g44
g45
(g46
(I0
tp233
g48
tp234
Rp235
(I1
(I3
tp236
g55
I00
S'\x00\x00\x00\x00\x00\x00\xd0?\x00\x00\x00\x00\x00\x00\xd0?\x00\x00\x00\x00\x00\x00\xd0?'
p237
tp238
bsg60
g32
(g61
g34
Ntp239
Rp240
(dp241
g65
(dp242
g32
(g67
g34
Ntp243
Rp244
(dp245
S'superconduction_temperature'
p246
NsS'density_of_solid'
p247
V5727 kg m<sup>-3</sup>
p248
sS'molar_volume'
p249
V12.95 cm<sup>3</sup>
p250
sS'bulk_modulus'
p251
V22 GPa
p252
sS'electronic_structure'
p253
V[Ar].3d<sup>10</sup>.4s<sup>2</sup>.4p<sup>3</sup>
p254
sS'critical_temperature'
p255
V1700 K
p256
sS'melting_point'
p257
V1090 K
p258
sS'mendeleev_no'
p259
I89
sS'brinell_hardness'
p260
V1440 MN m<sup>-2</sup>
p261
sg86
I33
sg87
F2.18
sS'poissons_ratio'
p262
NsS'atomic_radius_calculated'
p263
F1.14
sg90
g32
(g91
g92
F74.9216
tp264
Rp265
(dp266
g96
g32
(g97
g34
Ntp267
Rp268
(dp269
g96
g101
(g102
tp270
Rp271
g105
I1
ssbsg106
g107
sg108
F74.9216
sbsS'reflectivity'
p272
NsS'electrical_resistivity'
p273
V33 10<sup>-8</sup> &Omega; m
p274
sS'liquid_range'
p275
V203 K
p276
sS'rigidity_modulus'
p277
Nsg115
VAs
p278
sS'van_der_waals_radius'
p279
F1.85
sg118
(dp280
VElectrical resistivity
p281
g274
sVElectronic structure
p282
g254
sVVelocity of sound
p283
Vno data m s<sup>-1</sup>
p284
sVOxidation states
p285
(lp286
I-3
aI2
aI3
aI5
asVReflectivity
p287
Vno data %
p288
sVPoissons ratio
p289
Vno data
p290
sVMolar volume
p291
g250
sVVan der waals radius
p292
F1.85
sg132
F2.18
sVName
p293
VArsenic
p294
sVBulk modulus
p295
g252
sVMineral hardness
p296
V3.5
p297
sVAtomic mass
p298
F74.9216
sVAtomic no
p299
I33
sVBoiling point
p300
V887 K
p301
sVCommon oxidation states
p302
(lp303
I-3
aI3
aI5
asVBrinell hardness
p304
g261
sVDensity of solid
p305
g248
sVCritical temperature
p306
g256
sVMelting point
p307
g258
sVMendeleev no
p308
I89
sVCoefficient of linear thermal expansion
p309
Vno data x10<sup>-6</sup>K<sup>-1</sup>
p310
sVYoungs modulus
p311
V8 GPa
p312
sVRigidity modulus
p313
Vno data GPa
p314
sVThermal conductivity
p315
V50 W m<sup>-1</sup> K<sup>-1</sup>
p316
sVLiquid range
p317
g276
sVAtomic radius calculated
p318
F1.14
sVVickers hardness
p319
Vno data MN m<sup>-2</sup>
p320
sVSuperconduction temperature
p321
Vno data K
p322
sVRefractive index
p323
V1.001552
p324
sVIonic radii
p325
(dp326
g168
F0.72
sV5
p327
F0.6
ssVAtomic radius
p328
F1.15
ssS'youngs_modulus'
p329
g312
sS'name'
p330
g294
sS'boiling_point'
p331
g301
sS'thermal_conductivity'
p332
g316
sS'velocity_of_sound'
p333
Nsg175
g32
(g91
g92
F1.15
tp334
Rp335
(dp336
g96
g32
(g97
g34
Ntp337
Rp338
(dp339
g96
g101
(g102
tp340
Rp341
g184
I1
ssbsg106
g185
sg108
F1.15
sbsS'mineral_hardness'
p342
g297
sS'vickers_hardness'
p343
NsS'refractive_index'
p344
g324
sS'coefficient_of_linear_thermal_expansion'
p345
NsbI1
ssg190
I00
sg191
I1
sbsg192
g195
sg220
g45
(g46
(I0
tp346
g48
tp347
Rp348
(I1
(I3
tp349
g55
I00
S'w\xbe\x9f\x1a/\x9d\xf6?w\xbe\x9f\x1a/\x9d\xf6?w\xbe\x9f\x1a/\x9d\xf6?'
p350
tp351
bsg227
(dp352
sg229
I01
sbasg192
g195
sbsS'ibnd_min'
p353
I1
sS'epsilon_extra_variables'
p354
(dp355
sS'sigma_extra_lines'
p356
(lp357
S'screening_semiconductor'
p358
asS'nproc_per_node_flag'
p359
S'--npernode'
p360
sS'nbnd_occ'
p361
I4
s.