(dp0
S'nbnd_cond_fi'
p1
I4
sS'absorption_extra_variables'
p2
(dp3
S'energy_resolution'
p4
F0.15
ssS'mpirun'
p5
g5
sS'ngkpt'
p6
(lp7
I2
aI2
aI2
asS'prefix'
p8
S'GaAs'
p9
sS'ecuteps'
p10
F10.0
sS'extra_lines'
p11
(lp12
sS'kernel_extra_lines'
p13
(lp14
S'use_symmetries_coarse_grid'
p15
aS'screening_semiconductor'
p16
asS'ibnd_max'
p17
I8
sS'nbnd'
p18
I8
sS'nbnd_sigma'
p19
I8
sS'absorption_extra_lines'
p20
(lp21
g15
aS'no_symmetries_fine_grid'
p22
aS'no_symmetries_shifted_grid'
p23
ag16
aS'use_velocity'
p24
aS'gaussian_broadening'
p25
aS'eqp_co_corrections'
p26
asS'qshift'
p27
(lp28
F0.001
aF0.0
aF0.0
asS'ngkpt_fine'
p29
(lp30
I4
aI4
aI4
asS'nbnd_val_fi'
p31
I4
sS'pseudos'
p32
(lp33
S'31-Ga.PBE.UPF'
p34
aS'33-As.PBE.UPF'
p35
asS'nproc_per_node'
p36
I2
sS'pseudo_dir'
p37
S'Pseudos'
p38
sS'wfn_fname'
p39
S'33-BSE/02-wfn/wfn.cplx'
p40
sS'ecutsigx'
p41
F15.0
sS'nbnd_cond_co'
p42
I4
sS'nproc'
p43
I2
sS'nbnd_cond'
p44
I4
sS'ecutwfc'
p45
F10.0
sS'kshift_fine'
p46
(lp47
F0.0
aF0.0
aF0.0
asS'nproc_flag'
p48
S'-n'
p49
sS'structure'
p50
ccopy_reg
_reconstructor
p51
(cpymatgen.core.structure
Structure
p52
c__builtin__
object
p53
Ntp54
Rp55
(dp56
S'_sites'
p57
(lp58
g51
(cpymatgen.core.sites
PeriodicSite
p59
g53
Ntp60
Rp61
(dp62
S'_fcoords'
p63
cnumpy.core.multiarray
_reconstruct
p64
(cnumpy
ndarray
p65
(I0
tp66
S'b'
p67
tp68
Rp69
(I1
(I3
tp70
cnumpy
dtype
p71
(S'f8'
p72
I0
I1
tp73
Rp74
(I3
S'<'
p75
NNNI-1
I-1
I0
tp76
bI00
S'\x00\x00\x00\x00\x00\x00\x00\x00\x00\x00\x00\x00\x00\x00\x00\x00\x00\x00\x00\x00\x00\x00\x00\x00'
p77
tp78
bsS'_species'
p79
g51
(cpymatgen.core.composition
Composition
p80
g53
Ntp81
Rp82
(dp83
S'_elmap'
p84
(dp85
g51
(cpymatgen.core.periodic_table
Element
p86
g53
Ntp87
Rp88
(dp89
S'superconduction_temperature'
p90
V1.083 K
p91
sS'density_of_solid'
p92
V5904 kg m<sup>-3</sup>
p93
sS'molar_volume'
p94
V11.80 cm<sup>3</sup>
p95
sS'bulk_modulus'
p96
NsS'electronic_structure'
p97
V[Ar].3d<sup>10</sup>.4s<sup>2</sup>.4p<sup>1</sup>
p98
sS'critical_temperature'
p99
NsS'melting_point'
p100
V302.91 K
p101
sS'mendeleev_no'
p102
I81
sS'brinell_hardness'
p103
V60 MN m<sup>-2</sup>
p104
sS'_z'
p105
I31
sS'_x'
p106
F1.81
sS'poissons_ratio'
p107
NsS'atomic_radius_calculated'
p108
F1.36
sS'atomic_mass'
p109
g51
(cpymatgen.core.units
FloatWithUnit
p110
c__builtin__
float
p111
F69.723
tp112
Rp113
(dp114
S'_unit'
p115
g51
(cpymatgen.core.units
Unit
p116
g53
Ntp117
Rp118
(dp119
g115
ccollections
defaultdict
p120
(c__builtin__
int
p121
tp122
Rp123
Vamu
p124
I1
ssbsS'_unit_type'
p125
Vmass
p126
sVval
p127
F69.723
sbsS'reflectivity'
p128
NsS'electrical_resistivity'
p129
Vabout  14 10<sup>-8</sup> &Omega; m
p130
sS'liquid_range'
p131
V2174.09 K
p132
sS'rigidity_modulus'
p133
NsS'_symbol'
p134
VGa
p135
sS'van_der_waals_radius'
p136
F1.87
sS'_data'
p137
(dp138
VElectrical resistivity
p139
g130
sVElectronic structure
p140
g98
sVVelocity of sound
p141
V2740 m s<sup>-1</sup>
p142
sVOxidation states
p143
(lp144
I1
aI2
aI3
asVReflectivity
p145
Vno data %
p146
sVPoissons ratio
p147
Vno data
p148
sVMolar volume
p149
g95
sVVan der waals radius
p150
F1.87
sVX
p151
F1.81
sVName
p152
VGallium
p153
sVBulk modulus
p154
Vno data GPa
p155
sVMineral hardness
p156
V1.5
p157
sVAtomic mass
p158
F69.723
sVAtomic no
p159
I31
sVBoiling point
p160
V2477 K
p161
sVCommon oxidation states
p162
(lp163
I3
asVBrinell hardness
p164
g104
sVDensity of solid
p165
g93
sVCritical temperature
p166
Vno data K
p167
sVMelting point
p168
g101
sVMendeleev no
p169
I81
sVCoefficient of linear thermal expansion
p170
V120 x10<sup>-6</sup>K<sup>-1</sup>
p171
sVYoungs modulus
p172
Vno data GPa
p173
sVRigidity modulus
p174
Vno data GPa
p175
sVThermal conductivity
p176
V29 W m<sup>-1</sup> K<sup>-1</sup>
p177
sVLiquid range
p178
g132
sVAtomic radius calculated
p179
F1.36
sVVickers hardness
p180
Vno data MN m<sup>-2</sup>
p181
sVSuperconduction temperature
p182
g91
sVRefractive index
p183
Vno data
p184
sVIonic radii
p185
(dp186
V3
p187
F0.76
ssVAtomic radius
p188
F1.3
ssS'youngs_modulus'
p189
NsS'name'
p190
g153
sS'boiling_point'
p191
g161
sS'thermal_conductivity'
p192
g177
sS'velocity_of_sound'
p193
g142
sS'atomic_radius'
p194
g51
(g110
g111
F1.3
tp195
Rp196
(dp197
g115
g51
(g116
g53
Ntp198
Rp199
(dp200
g115
g120
(g121
tp201
Rp202
Vang
p203
I1
ssbsg125
Vlength
p204
sg127
F1.3
sbsS'mineral_hardness'
p205
g157
sS'vickers_hardness'
p206
NsS'refractive_index'
p207
NsS'coefficient_of_linear_thermal_expansion'
p208
g171
sbI1
ssS'allow_negative'
p209
I00
sS'_natoms'
p210
I1
sbsS'_lattice'
p211
g51
(cpymatgen.core.lattice
Lattice
p212
g53
Ntp213
Rp214
(dp215
S'_metric_tensor'
p216
NsS'_matrix'
p217
g64
(g65
(I0
tp218
g67
tp219
Rp220
(I1
(I3
I3
tp221
g74
I00
S'\x00\x00\x00\x00\x00\x00\x00\x00w\xbe\x9f\x1a/\x9d\x06@w\xbe\x9f\x1a/\x9d\x06@w\xbe\x9f\x1a/\x9d\x06@\x00\x00\x00\x00\x00\x00\x00\x00w\xbe\x9f\x1a/\x9d\x06@w\xbe\x9f\x1a/\x9d\x06@w\xbe\x9f\x1a/\x9d\x06@\x00\x00\x00\x00\x00\x00\x00\x00'
p222
tp223
bsS'_angles'
p224
g64
(g65
(I0
tp225
g67
tp226
Rp227
(I1
(I3
tp228
g74
I00
S'\xff\xff\xff\xff\xff\xffM@\xff\xff\xff\xff\xff\xffM@\xff\xff\xff\xff\xff\xffM@'
p229
tp230
bsS'_lengths'
p231
g64
(g65
(I0
tp232
g67
tp233
Rp234
(I1
(I3
tp235
g74
I00
S'\xb2\xea\xb4|$\xfb\x0f@\xb2\xea\xb4|$\xfb\x0f@\xb2\xea\xb4|$\xfb\x0f@'
p236
tp237
bsS'_inv_matrix'
p238
NsbsS'_coords'
p239
g64
(g65
(I0
tp240
g67
tp241
Rp242
(I1
(I3
tp243
g74
I00
S'\x00\x00\x00\x00\x00\x00\x00\x00\x00\x00\x00\x00\x00\x00\x00\x00\x00\x00\x00\x00\x00\x00\x00\x00'
p244
tp245
bsS'_properties'
p246
(dp247
sS'_is_ordered'
p248
I01
sbag51
(g59
g53
Ntp249
Rp250
(dp251
g63
g64
(g65
(I0
tp252
g67
tp253
Rp254
(I1
(I3
tp255
g74
I00
S'\x00\x00\x00\x00\x00\x00\xd0?\x00\x00\x00\x00\x00\x00\xd0?\x00\x00\x00\x00\x00\x00\xd0?'
p256
tp257
bsg79
g51
(g80
g53
Ntp258
Rp259
(dp260
g84
(dp261
g51
(g86
g53
Ntp262
Rp263
(dp264
S'superconduction_temperature'
p265
NsS'density_of_solid'
p266
V5727 kg m<sup>-3</sup>
p267
sS'molar_volume'
p268
V12.95 cm<sup>3</sup>
p269
sS'bulk_modulus'
p270
V22 GPa
p271
sS'electronic_structure'
p272
V[Ar].3d<sup>10</sup>.4s<sup>2</sup>.4p<sup>3</sup>
p273
sS'critical_temperature'
p274
V1700 K
p275
sS'melting_point'
p276
V1090 K
p277
sS'mendeleev_no'
p278
I89
sS'brinell_hardness'
p279
V1440 MN m<sup>-2</sup>
p280
sg105
I33
sg106
F2.18
sS'poissons_ratio'
p281
NsS'atomic_radius_calculated'
p282
F1.14
sg109
g51
(g110
g111
F74.9216
tp283
Rp284
(dp285
g115
g51
(g116
g53
Ntp286
Rp287
(dp288
g115
g120
(g121
tp289
Rp290
g124
I1
ssbsg125
g126
sg127
F74.9216
sbsS'reflectivity'
p291
NsS'electrical_resistivity'
p292
V33 10<sup>-8</sup> &Omega; m
p293
sS'liquid_range'
p294
V203 K
p295
sS'rigidity_modulus'
p296
Nsg134
VAs
p297
sS'van_der_waals_radius'
p298
F1.85
sg137
(dp299
VElectrical resistivity
p300
g293
sVElectronic structure
p301
g273
sVVelocity of sound
p302
Vno data m s<sup>-1</sup>
p303
sVOxidation states
p304
(lp305
I-3
aI2
aI3
aI5
asVReflectivity
p306
Vno data %
p307
sVPoissons ratio
p308
Vno data
p309
sVMolar volume
p310
g269
sVVan der waals radius
p311
F1.85
sg151
F2.18
sVName
p312
VArsenic
p313
sVBulk modulus
p314
g271
sVMineral hardness
p315
V3.5
p316
sVAtomic mass
p317
F74.9216
sVAtomic no
p318
I33
sVBoiling point
p319
V887 K
p320
sVCommon oxidation states
p321
(lp322
I-3
aI3
aI5
asVBrinell hardness
p323
g280
sVDensity of solid
p324
g267
sVCritical temperature
p325
g275
sVMelting point
p326
g277
sVMendeleev no
p327
I89
sVCoefficient of linear thermal expansion
p328
Vno data x10<sup>-6</sup>K<sup>-1</sup>
p329
sVYoungs modulus
p330
V8 GPa
p331
sVRigidity modulus
p332
Vno data GPa
p333
sVThermal conductivity
p334
V50 W m<sup>-1</sup> K<sup>-1</sup>
p335
sVLiquid range
p336
g295
sVAtomic radius calculated
p337
F1.14
sVVickers hardness
p338
Vno data MN m<sup>-2</sup>
p339
sVSuperconduction temperature
p340
Vno data K
p341
sVRefractive index
p342
V1.001552
p343
sVIonic radii
p344
(dp345
g187
F0.72
sV5
p346
F0.6
ssVAtomic radius
p347
F1.15
ssS'youngs_modulus'
p348
g331
sS'name'
p349
g313
sS'boiling_point'
p350
g320
sS'thermal_conductivity'
p351
g335
sS'velocity_of_sound'
p352
Nsg194
g51
(g110
g111
F1.15
tp353
Rp354
(dp355
g115
g51
(g116
g53
Ntp356
Rp357
(dp358
g115
g120
(g121
tp359
Rp360
g203
I1
ssbsg125
g204
sg127
F1.15
sbsS'mineral_hardness'
p361
g316
sS'vickers_hardness'
p362
NsS'refractive_index'
p363
g343
sS'coefficient_of_linear_thermal_expansion'
p364
NsbI1
ssg209
I00
sg210
I1
sbsg211
g214
sg239
g64
(g65
(I0
tp365
g67
tp366
Rp367
(I1
(I3
tp368
g74
I00
S'w\xbe\x9f\x1a/\x9d\xf6?w\xbe\x9f\x1a/\x9d\xf6?w\xbe\x9f\x1a/\x9d\xf6?'
p369
tp370
bsg246
(dp371
sg248
I01
sbasg211
g214
sbsS'wfnq_fname'
p372
S'33-BSE/03-wfnq/wfnq.cplx'
p373
sS'ibnd_min'
p374
I1
sS'sigma_extra_lines'
p375
(lp376
g16
asS'nbnd_val'
p377
I4
sS'nbnd_val_co'
p378
I4
sS'nproc_per_node_flag'
p379
S'--npernode'
p380
sS'nbnd_occ'
p381
I4
sS'extra_variables'
p382
(dp383
s.