(dp0
S'wfn_co_fname'
p1
S'11-Workflow/wfn_co/wfn.cplx'
p2
sS'ibnd_min'
p3
I1
sS'ecut'
p4
F5.0
sS'epsmat_fname'
p5
S'11-Workflow/epsilon/epsmat'
p6
sS'pseudos'
p7
(lp8
S'31-Ga.pspnc'
p9
aS'33-As.pspnc'
p10
asS'nproc_per_node'
p11
I8
sS'pseudo_dir'
p12
S'../../Data/Pseudos'
p13
sS'mpirun'
p14
g14
sS'nband'
p15
I9
sS'ngkpt'
p16
(lp17
I2
aI2
aI2
asS'prefix'
p18
S'GaAs'
p19
sS'vxc_fname'
p20
S'11-Workflow/wfn_co/vxc.cplx'
p21
sS'nproc_per_node_flag'
p22
S'--npernode'
p23
sS'nproc'
p24
I8
sS'extra_lines'
p25
(lp26
S'screening_semiconductor'
p27
asS'rho_fname'
p28
S'11-Workflow/wfn_co/rho.cplx'
p29
sS'eps0mat_fname'
p30
S'11-Workflow/epsilon/eps0mat'
p31
sS'ibnd_max'
p32
I8
sS'nproc_flag'
p33
S'-n'
p34
sS'structure'
p35
ccopy_reg
_reconstructor
p36
(cpymatgen.core.structure
Structure
p37
c__builtin__
object
p38
Ntp39
Rp40
(dp41
S'_sites'
p42
(lp43
g36
(cpymatgen.core.sites
PeriodicSite
p44
g38
Ntp45
Rp46
(dp47
S'_fcoords'
p48
cnumpy.core.multiarray
_reconstruct
p49
(cnumpy
ndarray
p50
(I0
tp51
S'b'
p52
tp53
Rp54
(I1
(I3
tp55
cnumpy
dtype
p56
(S'f8'
p57
I0
I1
tp58
Rp59
(I3
S'<'
p60
NNNI-1
I-1
I0
tp61
bI00
S'\x00\x00\x00\x00\x00\x00\x00\x00\x00\x00\x00\x00\x00\x00\x00\x00\x00\x00\x00\x00\x00\x00\x00\x00'
p62
tp63
bsS'_species'
p64
g36
(cpymatgen.core.composition
Composition
p65
g38
Ntp66
Rp67
(dp68
S'_elmap'
p69
(dp70
g36
(cpymatgen.core.periodic_table
Element
p71
g38
Ntp72
Rp73
(dp74
S'superconduction_temperature'
p75
V1.083 K
p76
sS'density_of_solid'
p77
V5904 kg m<sup>-3</sup>
p78
sS'molar_volume'
p79
V11.80 cm<sup>3</sup>
p80
sS'bulk_modulus'
p81
NsS'electronic_structure'
p82
V[Ar].3d<sup>10</sup>.4s<sup>2</sup>.4p<sup>1</sup>
p83
sS'critical_temperature'
p84
NsS'melting_point'
p85
V302.91 K
p86
sS'mendeleev_no'
p87
I81
sS'brinell_hardness'
p88
V60 MN m<sup>-2</sup>
p89
sS'_z'
p90
I31
sS'_x'
p91
F1.81
sS'poissons_ratio'
p92
NsS'atomic_radius_calculated'
p93
F1.36
sS'atomic_mass'
p94
g36
(cpymatgen.core.units
FloatWithUnit
p95
c__builtin__
float
p96
F69.723
tp97
Rp98
(dp99
S'_unit'
p100
g36
(cpymatgen.core.units
Unit
p101
g38
Ntp102
Rp103
(dp104
g100
ccollections
defaultdict
p105
(c__builtin__
int
p106
tp107
Rp108
Vamu
p109
I1
ssbsS'_unit_type'
p110
Vmass
p111
sVval
p112
F69.723
sbsS'reflectivity'
p113
NsS'electrical_resistivity'
p114
Vabout  14 10<sup>-8</sup> &Omega; m
p115
sS'liquid_range'
p116
V2174.09 K
p117
sS'rigidity_modulus'
p118
NsS'_symbol'
p119
VGa
p120
sS'van_der_waals_radius'
p121
F1.87
sS'_data'
p122
(dp123
VElectrical resistivity
p124
g115
sVElectronic structure
p125
g83
sVVelocity of sound
p126
V2740 m s<sup>-1</sup>
p127
sVOxidation states
p128
(lp129
I1
aI2
aI3
asVReflectivity
p130
Vno data %
p131
sVPoissons ratio
p132
Vno data
p133
sVMolar volume
p134
g80
sVVan der waals radius
p135
F1.87
sVX
p136
F1.81
sVName
p137
VGallium
p138
sVBulk modulus
p139
Vno data GPa
p140
sVMineral hardness
p141
V1.5
p142
sVAtomic mass
p143
F69.723
sVAtomic no
p144
I31
sVBoiling point
p145
V2477 K
p146
sVCommon oxidation states
p147
(lp148
I3
asVBrinell hardness
p149
g89
sVDensity of solid
p150
g78
sVCritical temperature
p151
Vno data K
p152
sVMelting point
p153
g86
sVMendeleev no
p154
I81
sVCoefficient of linear thermal expansion
p155
V120 x10<sup>-6</sup>K<sup>-1</sup>
p156
sVYoungs modulus
p157
Vno data GPa
p158
sVRigidity modulus
p159
Vno data GPa
p160
sVThermal conductivity
p161
V29 W m<sup>-1</sup> K<sup>-1</sup>
p162
sVLiquid range
p163
g117
sVAtomic radius calculated
p164
F1.36
sVVickers hardness
p165
Vno data MN m<sup>-2</sup>
p166
sVSuperconduction temperature
p167
g76
sVRefractive index
p168
Vno data
p169
sVIonic radii
p170
(dp171
V3
p172
F0.76
ssVAtomic radius
p173
F1.3
ssS'youngs_modulus'
p174
NsS'name'
p175
g138
sS'boiling_point'
p176
g146
sS'thermal_conductivity'
p177
g162
sS'velocity_of_sound'
p178
g127
sS'atomic_radius'
p179
g36
(g95
g96
F1.3
tp180
Rp181
(dp182
g100
g36
(g101
g38
Ntp183
Rp184
(dp185
g100
g105
(g106
tp186
Rp187
Vang
p188
I1
ssbsg110
Vlength
p189
sg112
F1.3
sbsS'mineral_hardness'
p190
g142
sS'vickers_hardness'
p191
NsS'refractive_index'
p192
NsS'coefficient_of_linear_thermal_expansion'
p193
g156
sbI1
ssS'allow_negative'
p194
I00
sS'_natoms'
p195
I1
sbsS'_lattice'
p196
g36
(cpymatgen.core.lattice
Lattice
p197
g38
Ntp198
Rp199
(dp200
S'_metric_tensor'
p201
NsS'_matrix'
p202
g49
(g50
(I0
tp203
g52
tp204
Rp205
(I1
(I3
I3
tp206
g59
I00
S'\x00\x00\x00\x00\x00\x00\x00\x00w\xbe\x9f\x1a/\x9d\x06@w\xbe\x9f\x1a/\x9d\x06@w\xbe\x9f\x1a/\x9d\x06@\x00\x00\x00\x00\x00\x00\x00\x00w\xbe\x9f\x1a/\x9d\x06@w\xbe\x9f\x1a/\x9d\x06@w\xbe\x9f\x1a/\x9d\x06@\x00\x00\x00\x00\x00\x00\x00\x00'
p207
tp208
bsS'_angles'
p209
g49
(g50
(I0
tp210
g52
tp211
Rp212
(I1
(I3
tp213
g59
I00
S'\xff\xff\xff\xff\xff\xffM@\xff\xff\xff\xff\xff\xffM@\xff\xff\xff\xff\xff\xffM@'
p214
tp215
bsS'_lengths'
p216
g49
(g50
(I0
tp217
g52
tp218
Rp219
(I1
(I3
tp220
g59
I00
S'\xb2\xea\xb4|$\xfb\x0f@\xb2\xea\xb4|$\xfb\x0f@\xb2\xea\xb4|$\xfb\x0f@'
p221
tp222
bsS'_inv_matrix'
p223
NsbsS'_coords'
p224
g49
(g50
(I0
tp225
g52
tp226
Rp227
(I1
(I3
tp228
g59
I00
S'\x00\x00\x00\x00\x00\x00\x00\x00\x00\x00\x00\x00\x00\x00\x00\x00\x00\x00\x00\x00\x00\x00\x00\x00'
p229
tp230
bsS'_properties'
p231
(dp232
sS'_is_ordered'
p233
I01
sbag36
(g44
g38
Ntp234
Rp235
(dp236
g48
g49
(g50
(I0
tp237
g52
tp238
Rp239
(I1
(I3
tp240
g59
I00
S'\x00\x00\x00\x00\x00\x00\xd0?\x00\x00\x00\x00\x00\x00\xd0?\x00\x00\x00\x00\x00\x00\xd0?'
p241
tp242
bsg64
g36
(g65
g38
Ntp243
Rp244
(dp245
g69
(dp246
g36
(g71
g38
Ntp247
Rp248
(dp249
S'superconduction_temperature'
p250
NsS'density_of_solid'
p251
V5727 kg m<sup>-3</sup>
p252
sS'molar_volume'
p253
V12.95 cm<sup>3</sup>
p254
sS'bulk_modulus'
p255
V22 GPa
p256
sS'electronic_structure'
p257
V[Ar].3d<sup>10</sup>.4s<sup>2</sup>.4p<sup>3</sup>
p258
sS'critical_temperature'
p259
V1700 K
p260
sS'melting_point'
p261
V1090 K
p262
sS'mendeleev_no'
p263
I89
sS'brinell_hardness'
p264
V1440 MN m<sup>-2</sup>
p265
sg90
I33
sg91
F2.18
sS'poissons_ratio'
p266
NsS'atomic_radius_calculated'
p267
F1.14
sg94
g36
(g95
g96
F74.9216
tp268
Rp269
(dp270
g100
g36
(g101
g38
Ntp271
Rp272
(dp273
g100
g105
(g106
tp274
Rp275
g109
I1
ssbsg110
g111
sg112
F74.9216
sbsS'reflectivity'
p276
NsS'electrical_resistivity'
p277
V33 10<sup>-8</sup> &Omega; m
p278
sS'liquid_range'
p279
V203 K
p280
sS'rigidity_modulus'
p281
Nsg119
VAs
p282
sS'van_der_waals_radius'
p283
F1.85
sg122
(dp284
VElectrical resistivity
p285
g278
sVElectronic structure
p286
g258
sVVelocity of sound
p287
Vno data m s<sup>-1</sup>
p288
sVOxidation states
p289
(lp290
I-3
aI2
aI3
aI5
asVReflectivity
p291
Vno data %
p292
sVPoissons ratio
p293
Vno data
p294
sVMolar volume
p295
g254
sVVan der waals radius
p296
F1.85
sg136
F2.18
sVName
p297
VArsenic
p298
sVBulk modulus
p299
g256
sVMineral hardness
p300
V3.5
p301
sVAtomic mass
p302
F74.9216
sVAtomic no
p303
I33
sVBoiling point
p304
V887 K
p305
sVCommon oxidation states
p306
(lp307
I-3
aI3
aI5
asVBrinell hardness
p308
g265
sVDensity of solid
p309
g252
sVCritical temperature
p310
g260
sVMelting point
p311
g262
sVMendeleev no
p312
I89
sVCoefficient of linear thermal expansion
p313
Vno data x10<sup>-6</sup>K<sup>-1</sup>
p314
sVYoungs modulus
p315
V8 GPa
p316
sVRigidity modulus
p317
Vno data GPa
p318
sVThermal conductivity
p319
V50 W m<sup>-1</sup> K<sup>-1</sup>
p320
sVLiquid range
p321
g280
sVAtomic radius calculated
p322
F1.14
sVVickers hardness
p323
Vno data MN m<sup>-2</sup>
p324
sVSuperconduction temperature
p325
Vno data K
p326
sVRefractive index
p327
V1.001552
p328
sVIonic radii
p329
(dp330
g172
F0.72
sV5
p331
F0.6
ssVAtomic radius
p332
F1.15
ssS'youngs_modulus'
p333
g316
sS'name'
p334
g298
sS'boiling_point'
p335
g305
sS'thermal_conductivity'
p336
g320
sS'velocity_of_sound'
p337
Nsg179
g36
(g95
g96
F1.15
tp338
Rp339
(dp340
g100
g36
(g101
g38
Ntp341
Rp342
(dp343
g100
g105
(g106
tp344
Rp345
g188
I1
ssbsg110
g189
sg112
F1.15
sbsS'mineral_hardness'
p346
g301
sS'vickers_hardness'
p347
NsS'refractive_index'
p348
g328
sS'coefficient_of_linear_thermal_expansion'
p349
NsbI1
ssg194
I00
sg195
I1
sbsg196
g199
sg224
g49
(g50
(I0
tp350
g52
tp351
Rp352
(I1
(I3
tp353
g59
I00
S'w\xbe\x9f\x1a/\x9d\xf6?w\xbe\x9f\x1a/\x9d\xf6?w\xbe\x9f\x1a/\x9d\xf6?'
p354
tp355
bsg231
(dp356
sg233
I01
sbasg196
g199
sbs.