(dp0
S'nbnd_cond_fi'
p1
I4
sS'absorption_extra_variables'
p2
(dp3
S'energy_resolution'
p4
F0.15
ssS'dft_flavor'
p5
S'abinit'
p6
sS'mpirun'
p7
g7
sS'kshift_fine'
p8
(lp9
F0.0
aF0.0
aF0.0
asS'qshift'
p10
(lp11
F0.001
aF0.0
aF0.0
asS'prefix'
p12
S'GaAs'
p13
sS'ecuteps'
p14
F10.0
sS'kernel_extra_lines'
p15
(lp16
S'use_symmetries_coarse_grid'
p17
aS'screening_semiconductor'
p18
asS'ibnd_max'
p19
I8
sS'nbnd'
p20
I9
sS'absorption_extra_lines'
p21
(lp22
g17
aS'no_symmetries_fine_grid'
p23
aS'no_symmetries_shifted_grid'
p24
ag18
aS'use_velocity'
p25
aS'gaussian_broadening'
p26
aS'eqp_co_corrections'
p27
asS'ngkpt'
p28
(lp29
I2
aI2
aI2
asS'kshift'
p30
(lp31
F0.5
aF0.5
aF0.5
asS'ngkpt_fine'
p32
(lp33
I4
aI4
aI4
asS'nbnd_val_fi'
p34
I4
sS'ecut'
p35
F5.0
sS'pseudos'
p36
(lp37
S'31-Ga.pspnc'
p38
aS'33-As.pspnc'
p39
asS'nproc_per_node'
p40
I2
sS'pseudo_dir'
p41
S'../../Data/Pseudos'
p42
sS'nbnd_cond_co'
p43
I4
sS'nproc'
p44
I2
sS'nbnd_cond'
p45
I4
sS'nproc_flag'
p46
S'-n'
p47
sS'structure'
p48
ccopy_reg
_reconstructor
p49
(cpymatgen.core.structure
Structure
p50
c__builtin__
object
p51
Ntp52
Rp53
(dp54
S'_sites'
p55
(lp56
g49
(cpymatgen.core.sites
PeriodicSite
p57
g51
Ntp58
Rp59
(dp60
S'_fcoords'
p61
cnumpy.core.multiarray
_reconstruct
p62
(cnumpy
ndarray
p63
(I0
tp64
S'b'
p65
tp66
Rp67
(I1
(I3
tp68
cnumpy
dtype
p69
(S'f8'
p70
I0
I1
tp71
Rp72
(I3
S'<'
p73
NNNI-1
I-1
I0
tp74
bI00
S'\x00\x00\x00\x00\x00\x00\x00\x00\x00\x00\x00\x00\x00\x00\x00\x00\x00\x00\x00\x00\x00\x00\x00\x00'
p75
tp76
bsS'_species'
p77
g49
(cpymatgen.core.composition
Composition
p78
g51
Ntp79
Rp80
(dp81
S'_elmap'
p82
(dp83
g49
(cpymatgen.core.periodic_table
Element
p84
g51
Ntp85
Rp86
(dp87
S'superconduction_temperature'
p88
V1.083 K
p89
sS'density_of_solid'
p90
V5904 kg m<sup>-3</sup>
p91
sS'molar_volume'
p92
V11.80 cm<sup>3</sup>
p93
sS'bulk_modulus'
p94
NsS'electronic_structure'
p95
V[Ar].3d<sup>10</sup>.4s<sup>2</sup>.4p<sup>1</sup>
p96
sS'critical_temperature'
p97
NsS'melting_point'
p98
V302.91 K
p99
sS'mendeleev_no'
p100
I81
sS'brinell_hardness'
p101
V60 MN m<sup>-2</sup>
p102
sS'_z'
p103
I31
sS'_x'
p104
F1.81
sS'poissons_ratio'
p105
NsS'atomic_radius_calculated'
p106
F1.36
sS'atomic_mass'
p107
g49
(cpymatgen.core.units
FloatWithUnit
p108
c__builtin__
float
p109
F69.723
tp110
Rp111
(dp112
S'_unit'
p113
g49
(cpymatgen.core.units
Unit
p114
g51
Ntp115
Rp116
(dp117
g113
ccollections
defaultdict
p118
(c__builtin__
int
p119
tp120
Rp121
Vamu
p122
I1
ssbsS'_unit_type'
p123
Vmass
p124
sVval
p125
F69.723
sbsS'reflectivity'
p126
NsS'electrical_resistivity'
p127
Vabout  14 10<sup>-8</sup> &Omega; m
p128
sS'liquid_range'
p129
V2174.09 K
p130
sS'rigidity_modulus'
p131
NsS'_symbol'
p132
VGa
p133
sS'van_der_waals_radius'
p134
F1.87
sS'_data'
p135
(dp136
VElectrical resistivity
p137
g128
sVElectronic structure
p138
g96
sVVelocity of sound
p139
V2740 m s<sup>-1</sup>
p140
sVOxidation states
p141
(lp142
I1
aI2
aI3
asVReflectivity
p143
Vno data %
p144
sVPoissons ratio
p145
Vno data
p146
sVMolar volume
p147
g93
sVVan der waals radius
p148
F1.87
sVX
p149
F1.81
sVName
p150
VGallium
p151
sVBulk modulus
p152
Vno data GPa
p153
sVMineral hardness
p154
V1.5
p155
sVAtomic mass
p156
F69.723
sVAtomic no
p157
I31
sVBoiling point
p158
V2477 K
p159
sVCommon oxidation states
p160
(lp161
I3
asVBrinell hardness
p162
g102
sVDensity of solid
p163
g91
sVCritical temperature
p164
Vno data K
p165
sVMelting point
p166
g99
sVMendeleev no
p167
I81
sVCoefficient of linear thermal expansion
p168
V120 x10<sup>-6</sup>K<sup>-1</sup>
p169
sVYoungs modulus
p170
Vno data GPa
p171
sVRigidity modulus
p172
Vno data GPa
p173
sVThermal conductivity
p174
V29 W m<sup>-1</sup> K<sup>-1</sup>
p175
sVLiquid range
p176
g130
sVAtomic radius calculated
p177
F1.36
sVVickers hardness
p178
Vno data MN m<sup>-2</sup>
p179
sVSuperconduction temperature
p180
g89
sVRefractive index
p181
Vno data
p182
sVIonic radii
p183
(dp184
V3
p185
F0.76
ssVAtomic radius
p186
F1.3
ssS'youngs_modulus'
p187
NsS'name'
p188
g151
sS'boiling_point'
p189
g159
sS'thermal_conductivity'
p190
g175
sS'velocity_of_sound'
p191
g140
sS'atomic_radius'
p192
g49
(g108
g109
F1.3
tp193
Rp194
(dp195
g113
g49
(g114
g51
Ntp196
Rp197
(dp198
g113
g118
(g119
tp199
Rp200
Vang
p201
I1
ssbsg123
Vlength
p202
sg125
F1.3
sbsS'mineral_hardness'
p203
g155
sS'vickers_hardness'
p204
NsS'refractive_index'
p205
NsS'coefficient_of_linear_thermal_expansion'
p206
g169
sbI1
ssS'allow_negative'
p207
I00
sS'_natoms'
p208
I1
sbsS'_lattice'
p209
g49
(cpymatgen.core.lattice
Lattice
p210
g51
Ntp211
Rp212
(dp213
S'_metric_tensor'
p214
NsS'_matrix'
p215
g62
(g63
(I0
tp216
g65
tp217
Rp218
(I1
(I3
I3
tp219
g72
I00
S'\x00\x00\x00\x00\x00\x00\x00\x00w\xbe\x9f\x1a/\x9d\x06@w\xbe\x9f\x1a/\x9d\x06@w\xbe\x9f\x1a/\x9d\x06@\x00\x00\x00\x00\x00\x00\x00\x00w\xbe\x9f\x1a/\x9d\x06@w\xbe\x9f\x1a/\x9d\x06@w\xbe\x9f\x1a/\x9d\x06@\x00\x00\x00\x00\x00\x00\x00\x00'
p220
tp221
bsS'_angles'
p222
g62
(g63
(I0
tp223
g65
tp224
Rp225
(I1
(I3
tp226
g72
I00
S'\xff\xff\xff\xff\xff\xffM@\xff\xff\xff\xff\xff\xffM@\xff\xff\xff\xff\xff\xffM@'
p227
tp228
bsS'_lengths'
p229
g62
(g63
(I0
tp230
g65
tp231
Rp232
(I1
(I3
tp233
g72
I00
S'\xb2\xea\xb4|$\xfb\x0f@\xb2\xea\xb4|$\xfb\x0f@\xb2\xea\xb4|$\xfb\x0f@'
p234
tp235
bsS'_inv_matrix'
p236
NsbsS'_coords'
p237
g62
(g63
(I0
tp238
g65
tp239
Rp240
(I1
(I3
tp241
g72
I00
S'\x00\x00\x00\x00\x00\x00\x00\x00\x00\x00\x00\x00\x00\x00\x00\x00\x00\x00\x00\x00\x00\x00\x00\x00'
p242
tp243
bsS'_properties'
p244
(dp245
sS'_is_ordered'
p246
I01
sbag49
(g57
g51
Ntp247
Rp248
(dp249
g61
g62
(g63
(I0
tp250
g65
tp251
Rp252
(I1
(I3
tp253
g72
I00
S'\x00\x00\x00\x00\x00\x00\xd0?\x00\x00\x00\x00\x00\x00\xd0?\x00\x00\x00\x00\x00\x00\xd0?'
p254
tp255
bsg77
g49
(g78
g51
Ntp256
Rp257
(dp258
g82
(dp259
g49
(g84
g51
Ntp260
Rp261
(dp262
S'superconduction_temperature'
p263
NsS'density_of_solid'
p264
V5727 kg m<sup>-3</sup>
p265
sS'molar_volume'
p266
V12.95 cm<sup>3</sup>
p267
sS'bulk_modulus'
p268
V22 GPa
p269
sS'electronic_structure'
p270
V[Ar].3d<sup>10</sup>.4s<sup>2</sup>.4p<sup>3</sup>
p271
sS'critical_temperature'
p272
V1700 K
p273
sS'melting_point'
p274
V1090 K
p275
sS'mendeleev_no'
p276
I89
sS'brinell_hardness'
p277
V1440 MN m<sup>-2</sup>
p278
sg103
I33
sg104
F2.18
sS'poissons_ratio'
p279
NsS'atomic_radius_calculated'
p280
F1.14
sg107
g49
(g108
g109
F74.9216
tp281
Rp282
(dp283
g113
g49
(g114
g51
Ntp284
Rp285
(dp286
g113
g118
(g119
tp287
Rp288
g122
I1
ssbsg123
g124
sg125
F74.9216
sbsS'reflectivity'
p289
NsS'electrical_resistivity'
p290
V33 10<sup>-8</sup> &Omega; m
p291
sS'liquid_range'
p292
V203 K
p293
sS'rigidity_modulus'
p294
Nsg132
VAs
p295
sS'van_der_waals_radius'
p296
F1.85
sg135
(dp297
VElectrical resistivity
p298
g291
sVElectronic structure
p299
g271
sVVelocity of sound
p300
Vno data m s<sup>-1</sup>
p301
sVOxidation states
p302
(lp303
I-3
aI2
aI3
aI5
asVReflectivity
p304
Vno data %
p305
sVPoissons ratio
p306
Vno data
p307
sVMolar volume
p308
g267
sVVan der waals radius
p309
F1.85
sg149
F2.18
sVName
p310
VArsenic
p311
sVBulk modulus
p312
g269
sVMineral hardness
p313
V3.5
p314
sVAtomic mass
p315
F74.9216
sVAtomic no
p316
I33
sVBoiling point
p317
V887 K
p318
sVCommon oxidation states
p319
(lp320
I-3
aI3
aI5
asVBrinell hardness
p321
g278
sVDensity of solid
p322
g265
sVCritical temperature
p323
g273
sVMelting point
p324
g275
sVMendeleev no
p325
I89
sVCoefficient of linear thermal expansion
p326
Vno data x10<sup>-6</sup>K<sup>-1</sup>
p327
sVYoungs modulus
p328
V8 GPa
p329
sVRigidity modulus
p330
Vno data GPa
p331
sVThermal conductivity
p332
V50 W m<sup>-1</sup> K<sup>-1</sup>
p333
sVLiquid range
p334
g293
sVAtomic radius calculated
p335
F1.14
sVVickers hardness
p336
Vno data MN m<sup>-2</sup>
p337
sVSuperconduction temperature
p338
Vno data K
p339
sVRefractive index
p340
V1.001552
p341
sVIonic radii
p342
(dp343
g185
F0.72
sV5
p344
F0.6
ssVAtomic radius
p345
F1.15
ssS'youngs_modulus'
p346
g329
sS'name'
p347
g311
sS'boiling_point'
p348
g318
sS'thermal_conductivity'
p349
g333
sS'velocity_of_sound'
p350
Nsg192
g49
(g108
g109
F1.15
tp351
Rp352
(dp353
g113
g49
(g114
g51
Ntp354
Rp355
(dp356
g113
g118
(g119
tp357
Rp358
g201
I1
ssbsg123
g202
sg125
F1.15
sbsS'mineral_hardness'
p359
g314
sS'vickers_hardness'
p360
NsS'refractive_index'
p361
g341
sS'coefficient_of_linear_thermal_expansion'
p362
NsbI1
ssg207
I00
sg208
I1
sbsg209
g212
sg237
g62
(g63
(I0
tp363
g65
tp364
Rp365
(I1
(I3
tp366
g72
I00
S'w\xbe\x9f\x1a/\x9d\xf6?w\xbe\x9f\x1a/\x9d\xf6?w\xbe\x9f\x1a/\x9d\xf6?'
p367
tp368
bsg244
(dp369
sg246
I01
sbasg209
g212
sbsS'ibnd_min'
p370
I1
sS'sigma_extra_lines'
p371
(lp372
g18
asS'nbnd_val'
p373
I4
sS'nbnd_val_co'
p374
I4
sS'nproc_per_node_flag'
p375
S'--npernode'
p376
s.