(dp0
S'ecutwfc'
p1
F10.0
sS'pseudos'
p2
(lp3
S'31-Ga.PBE.UPF'
p4
aS'33-As.PBE.UPF'
p5
asS'nproc_per_node'
p6
I1
sS'pseudo_dir'
p7
S'Pseudos'
p8
sS'mpirun'
p9
g9
sS'kshift'
p10
(lp11
F0.5
aF0.5
aF0.5
asS'ngkpt'
p12
(lp13
I2
aI2
aI2
asS'prefix'
p14
S'GaAs'
p15
sS'nproc_per_node_flag'
p16
S'--npernode'
p17
sS'nproc'
p18
I1
sS'nproc_flag'
p19
S'-n'
p20
sS'structure'
p21
ccopy_reg
_reconstructor
p22
(cpymatgen.core.structure
Structure
p23
c__builtin__
object
p24
Ntp25
Rp26
(dp27
S'_sites'
p28
(lp29
g22
(cpymatgen.core.sites
PeriodicSite
p30
g24
Ntp31
Rp32
(dp33
S'_fcoords'
p34
cnumpy.core.multiarray
_reconstruct
p35
(cnumpy
ndarray
p36
(I0
tp37
S'b'
p38
tp39
Rp40
(I1
(I3
tp41
cnumpy
dtype
p42
(S'f8'
p43
I0
I1
tp44
Rp45
(I3
S'<'
p46
NNNI-1
I-1
I0
tp47
bI00
S'\x00\x00\x00\x00\x00\x00\x00\x00\x00\x00\x00\x00\x00\x00\x00\x00\x00\x00\x00\x00\x00\x00\x00\x00'
p48
tp49
bsS'_species'
p50
g22
(cpymatgen.core.composition
Composition
p51
g24
Ntp52
Rp53
(dp54
S'_elmap'
p55
(dp56
g22
(cpymatgen.core.periodic_table
Element
p57
g24
Ntp58
Rp59
(dp60
S'superconduction_temperature'
p61
V1.083 K
p62
sS'density_of_solid'
p63
V5904 kg m<sup>-3</sup>
p64
sS'molar_volume'
p65
V11.80 cm<sup>3</sup>
p66
sS'bulk_modulus'
p67
NsS'electronic_structure'
p68
V[Ar].3d<sup>10</sup>.4s<sup>2</sup>.4p<sup>1</sup>
p69
sS'critical_temperature'
p70
NsS'melting_point'
p71
V302.91 K
p72
sS'mendeleev_no'
p73
I81
sS'brinell_hardness'
p74
V60 MN m<sup>-2</sup>
p75
sS'_z'
p76
I31
sS'_x'
p77
F1.81
sS'poissons_ratio'
p78
NsS'atomic_radius_calculated'
p79
F1.36
sS'atomic_mass'
p80
g22
(cpymatgen.core.units
FloatWithUnit
p81
c__builtin__
float
p82
F69.723
tp83
Rp84
(dp85
S'_unit'
p86
g22
(cpymatgen.core.units
Unit
p87
g24
Ntp88
Rp89
(dp90
g86
ccollections
defaultdict
p91
(c__builtin__
int
p92
tp93
Rp94
Vamu
p95
I1
ssbsS'_unit_type'
p96
Vmass
p97
sVval
p98
F69.723
sbsS'reflectivity'
p99
NsS'electrical_resistivity'
p100
Vabout  14 10<sup>-8</sup> &Omega; m
p101
sS'liquid_range'
p102
V2174.09 K
p103
sS'rigidity_modulus'
p104
NsS'_symbol'
p105
VGa
p106
sS'van_der_waals_radius'
p107
F1.87
sS'_data'
p108
(dp109
VElectrical resistivity
p110
g101
sVElectronic structure
p111
g69
sVVelocity of sound
p112
V2740 m s<sup>-1</sup>
p113
sVOxidation states
p114
(lp115
I1
aI2
aI3
asVReflectivity
p116
Vno data %
p117
sVPoissons ratio
p118
Vno data
p119
sVMolar volume
p120
g66
sVVan der waals radius
p121
F1.87
sVX
p122
F1.81
sVName
p123
VGallium
p124
sVBulk modulus
p125
Vno data GPa
p126
sVMineral hardness
p127
V1.5
p128
sVAtomic mass
p129
F69.723
sVAtomic no
p130
I31
sVBoiling point
p131
V2477 K
p132
sVCommon oxidation states
p133
(lp134
I3
asVBrinell hardness
p135
g75
sVDensity of solid
p136
g64
sVCritical temperature
p137
Vno data K
p138
sVMelting point
p139
g72
sVMendeleev no
p140
I81
sVCoefficient of linear thermal expansion
p141
V120 x10<sup>-6</sup>K<sup>-1</sup>
p142
sVYoungs modulus
p143
Vno data GPa
p144
sVRigidity modulus
p145
Vno data GPa
p146
sVThermal conductivity
p147
V29 W m<sup>-1</sup> K<sup>-1</sup>
p148
sVLiquid range
p149
g103
sVAtomic radius calculated
p150
F1.36
sVVickers hardness
p151
Vno data MN m<sup>-2</sup>
p152
sVSuperconduction temperature
p153
g62
sVRefractive index
p154
Vno data
p155
sVIonic radii
p156
(dp157
V3
p158
F0.76
ssVAtomic radius
p159
F1.3
ssS'youngs_modulus'
p160
NsS'name'
p161
g124
sS'boiling_point'
p162
g132
sS'thermal_conductivity'
p163
g148
sS'velocity_of_sound'
p164
g113
sS'atomic_radius'
p165
g22
(g81
g82
F1.3
tp166
Rp167
(dp168
g86
g22
(g87
g24
Ntp169
Rp170
(dp171
g86
g91
(g92
tp172
Rp173
Vang
p174
I1
ssbsg96
Vlength
p175
sg98
F1.3
sbsS'mineral_hardness'
p176
g128
sS'vickers_hardness'
p177
NsS'refractive_index'
p178
NsS'coefficient_of_linear_thermal_expansion'
p179
g142
sbI1
ssS'allow_negative'
p180
I00
sS'_natoms'
p181
I1
sbsS'_lattice'
p182
g22
(cpymatgen.core.lattice
Lattice
p183
g24
Ntp184
Rp185
(dp186
S'_metric_tensor'
p187
NsS'_matrix'
p188
g35
(g36
(I0
tp189
g38
tp190
Rp191
(I1
(I3
I3
tp192
g45
I00
S'\x00\x00\x00\x00\x00\x00\x00\x00w\xbe\x9f\x1a/\x9d\x06@w\xbe\x9f\x1a/\x9d\x06@w\xbe\x9f\x1a/\x9d\x06@\x00\x00\x00\x00\x00\x00\x00\x00w\xbe\x9f\x1a/\x9d\x06@w\xbe\x9f\x1a/\x9d\x06@w\xbe\x9f\x1a/\x9d\x06@\x00\x00\x00\x00\x00\x00\x00\x00'
p193
tp194
bsS'_angles'
p195
g35
(g36
(I0
tp196
g38
tp197
Rp198
(I1
(I3
tp199
g45
I00
S'\xff\xff\xff\xff\xff\xffM@\xff\xff\xff\xff\xff\xffM@\xff\xff\xff\xff\xff\xffM@'
p200
tp201
bsS'_lengths'
p202
g35
(g36
(I0
tp203
g38
tp204
Rp205
(I1
(I3
tp206
g45
I00
S'\xb2\xea\xb4|$\xfb\x0f@\xb2\xea\xb4|$\xfb\x0f@\xb2\xea\xb4|$\xfb\x0f@'
p207
tp208
bsS'_inv_matrix'
p209
NsbsS'_coords'
p210
g35
(g36
(I0
tp211
g38
tp212
Rp213
(I1
(I3
tp214
g45
I00
S'\x00\x00\x00\x00\x00\x00\x00\x00\x00\x00\x00\x00\x00\x00\x00\x00\x00\x00\x00\x00\x00\x00\x00\x00'
p215
tp216
bsS'_properties'
p217
(dp218
sS'_is_ordered'
p219
I01
sbag22
(g30
g24
Ntp220
Rp221
(dp222
g34
g35
(g36
(I0
tp223
g38
tp224
Rp225
(I1
(I3
tp226
g45
I00
S'\x00\x00\x00\x00\x00\x00\xd0?\x00\x00\x00\x00\x00\x00\xd0?\x00\x00\x00\x00\x00\x00\xd0?'
p227
tp228
bsg50
g22
(g51
g24
Ntp229
Rp230
(dp231
g55
(dp232
g22
(g57
g24
Ntp233
Rp234
(dp235
S'superconduction_temperature'
p236
NsS'density_of_solid'
p237
V5727 kg m<sup>-3</sup>
p238
sS'molar_volume'
p239
V12.95 cm<sup>3</sup>
p240
sS'bulk_modulus'
p241
V22 GPa
p242
sS'electronic_structure'
p243
V[Ar].3d<sup>10</sup>.4s<sup>2</sup>.4p<sup>3</sup>
p244
sS'critical_temperature'
p245
V1700 K
p246
sS'melting_point'
p247
V1090 K
p248
sS'mendeleev_no'
p249
I89
sS'brinell_hardness'
p250
V1440 MN m<sup>-2</sup>
p251
sg76
I33
sg77
F2.18
sS'poissons_ratio'
p252
NsS'atomic_radius_calculated'
p253
F1.14
sg80
g22
(g81
g82
F74.9216
tp254
Rp255
(dp256
g86
g22
(g87
g24
Ntp257
Rp258
(dp259
g86
g91
(g92
tp260
Rp261
g95
I1
ssbsg96
g97
sg98
F74.9216
sbsS'reflectivity'
p262
NsS'electrical_resistivity'
p263
V33 10<sup>-8</sup> &Omega; m
p264
sS'liquid_range'
p265
V203 K
p266
sS'rigidity_modulus'
p267
Nsg105
VAs
p268
sS'van_der_waals_radius'
p269
F1.85
sg108
(dp270
VElectrical resistivity
p271
g264
sVElectronic structure
p272
g244
sVVelocity of sound
p273
Vno data m s<sup>-1</sup>
p274
sVOxidation states
p275
(lp276
I-3
aI2
aI3
aI5
asVReflectivity
p277
Vno data %
p278
sVPoissons ratio
p279
Vno data
p280
sVMolar volume
p281
g240
sVVan der waals radius
p282
F1.85
sg122
F2.18
sVName
p283
VArsenic
p284
sVBulk modulus
p285
g242
sVMineral hardness
p286
V3.5
p287
sVAtomic mass
p288
F74.9216
sVAtomic no
p289
I33
sVBoiling point
p290
V887 K
p291
sVCommon oxidation states
p292
(lp293
I-3
aI3
aI5
asVBrinell hardness
p294
g251
sVDensity of solid
p295
g238
sVCritical temperature
p296
g246
sVMelting point
p297
g248
sVMendeleev no
p298
I89
sVCoefficient of linear thermal expansion
p299
Vno data x10<sup>-6</sup>K<sup>-1</sup>
p300
sVYoungs modulus
p301
V8 GPa
p302
sVRigidity modulus
p303
Vno data GPa
p304
sVThermal conductivity
p305
V50 W m<sup>-1</sup> K<sup>-1</sup>
p306
sVLiquid range
p307
g266
sVAtomic radius calculated
p308
F1.14
sVVickers hardness
p309
Vno data MN m<sup>-2</sup>
p310
sVSuperconduction temperature
p311
Vno data K
p312
sVRefractive index
p313
V1.001552
p314
sVIonic radii
p315
(dp316
g158
F0.72
sV5
p317
F0.6
ssVAtomic radius
p318
F1.15
ssS'youngs_modulus'
p319
g302
sS'name'
p320
g284
sS'boiling_point'
p321
g291
sS'thermal_conductivity'
p322
g306
sS'velocity_of_sound'
p323
Nsg165
g22
(g81
g82
F1.15
tp324
Rp325
(dp326
g86
g22
(g87
g24
Ntp327
Rp328
(dp329
g86
g91
(g92
tp330
Rp331
g174
I1
ssbsg96
g175
sg98
F1.15
sbsS'mineral_hardness'
p332
g287
sS'vickers_hardness'
p333
NsS'refractive_index'
p334
g314
sS'coefficient_of_linear_thermal_expansion'
p335
NsbI1
ssg180
I00
sg181
I1
sbsg182
g185
sg210
g35
(g36
(I0
tp336
g38
tp337
Rp338
(I1
(I3
tp339
g45
I00
S'w\xbe\x9f\x1a/\x9d\xf6?w\xbe\x9f\x1a/\x9d\xf6?w\xbe\x9f\x1a/\x9d\xf6?'
p340
tp341
bsg217
(dp342
sg219
I01
sbasg182
g185
sbs.