(dp0
S'nbnd'
p1
I20
sS'ecutwfc'
p2
F10.0
sS'pseudos'
p3
(lp4
S'31-Ga.PBE.UPF'
p5
aS'33-As.PBE.UPF'
p6
asS'nproc_per_node'
p7
I1
sS'pseudo_dir'
p8
S'Pseudos'
p9
sS'ngkpt'
p10
(lp11
I2
aI2
aI2
asS'mpirun'
p12
g12
sS'wfn_fname'
p13
S'wfnq.cplx'
p14
sS'qshift'
p15
(lp16
F0.001
aF0.0
aF0.0
asS'prefix'
p17
S'GaAs'
p18
sS'nproc_per_node_flag'
p19
S'--npernode'
p20
sS'nproc'
p21
I1
sS'kshift'
p22
(lp23
F0.5
aF0.5
aF0.5
asS'nproc_flag'
p24
S'-n'
p25
sS'structure'
p26
ccopy_reg
_reconstructor
p27
(cpymatgen.core.structure
Structure
p28
c__builtin__
object
p29
Ntp30
Rp31
(dp32
S'_sites'
p33
(lp34
g27
(cpymatgen.core.sites
PeriodicSite
p35
g29
Ntp36
Rp37
(dp38
S'_fcoords'
p39
cnumpy.core.multiarray
_reconstruct
p40
(cnumpy
ndarray
p41
(I0
tp42
S'b'
p43
tp44
Rp45
(I1
(I3
tp46
cnumpy
dtype
p47
(S'f8'
p48
I0
I1
tp49
Rp50
(I3
S'<'
p51
NNNI-1
I-1
I0
tp52
bI00
S'\x00\x00\x00\x00\x00\x00\x00\x00\x00\x00\x00\x00\x00\x00\x00\x00\x00\x00\x00\x00\x00\x00\x00\x00'
p53
tp54
bsS'_species'
p55
g27
(cpymatgen.core.composition
Composition
p56
g29
Ntp57
Rp58
(dp59
S'_elmap'
p60
(dp61
g27
(cpymatgen.core.periodic_table
Element
p62
g29
Ntp63
Rp64
(dp65
S'superconduction_temperature'
p66
V1.083 K
p67
sS'density_of_solid'
p68
V5904 kg m<sup>-3</sup>
p69
sS'molar_volume'
p70
V11.80 cm<sup>3</sup>
p71
sS'bulk_modulus'
p72
NsS'electronic_structure'
p73
V[Ar].3d<sup>10</sup>.4s<sup>2</sup>.4p<sup>1</sup>
p74
sS'critical_temperature'
p75
NsS'melting_point'
p76
V302.91 K
p77
sS'mendeleev_no'
p78
I81
sS'brinell_hardness'
p79
V60 MN m<sup>-2</sup>
p80
sS'_z'
p81
I31
sS'_x'
p82
F1.81
sS'poissons_ratio'
p83
NsS'atomic_radius_calculated'
p84
F1.36
sS'atomic_mass'
p85
g27
(cpymatgen.core.units
FloatWithUnit
p86
c__builtin__
float
p87
F69.723
tp88
Rp89
(dp90
S'_unit'
p91
g27
(cpymatgen.core.units
Unit
p92
g29
Ntp93
Rp94
(dp95
g91
ccollections
defaultdict
p96
(c__builtin__
int
p97
tp98
Rp99
Vamu
p100
I1
ssbsS'_unit_type'
p101
Vmass
p102
sVval
p103
F69.723
sbsS'reflectivity'
p104
NsS'electrical_resistivity'
p105
Vabout  14 10<sup>-8</sup> &Omega; m
p106
sS'liquid_range'
p107
V2174.09 K
p108
sS'rigidity_modulus'
p109
NsS'_symbol'
p110
VGa
p111
sS'van_der_waals_radius'
p112
F1.87
sS'_data'
p113
(dp114
VElectrical resistivity
p115
g106
sVElectronic structure
p116
g74
sVVelocity of sound
p117
V2740 m s<sup>-1</sup>
p118
sVOxidation states
p119
(lp120
I1
aI2
aI3
asVReflectivity
p121
Vno data %
p122
sVPoissons ratio
p123
Vno data
p124
sVMolar volume
p125
g71
sVVan der waals radius
p126
F1.87
sVX
p127
F1.81
sVName
p128
VGallium
p129
sVBulk modulus
p130
Vno data GPa
p131
sVMineral hardness
p132
V1.5
p133
sVAtomic mass
p134
F69.723
sVAtomic no
p135
I31
sVBoiling point
p136
V2477 K
p137
sVCommon oxidation states
p138
(lp139
I3
asVBrinell hardness
p140
g80
sVDensity of solid
p141
g69
sVCritical temperature
p142
Vno data K
p143
sVMelting point
p144
g77
sVMendeleev no
p145
I81
sVCoefficient of linear thermal expansion
p146
V120 x10<sup>-6</sup>K<sup>-1</sup>
p147
sVYoungs modulus
p148
Vno data GPa
p149
sVRigidity modulus
p150
Vno data GPa
p151
sVThermal conductivity
p152
V29 W m<sup>-1</sup> K<sup>-1</sup>
p153
sVLiquid range
p154
g108
sVAtomic radius calculated
p155
F1.36
sVVickers hardness
p156
Vno data MN m<sup>-2</sup>
p157
sVSuperconduction temperature
p158
g67
sVRefractive index
p159
Vno data
p160
sVIonic radii
p161
(dp162
V3
p163
F0.76
ssVAtomic radius
p164
F1.3
ssS'youngs_modulus'
p165
NsS'name'
p166
g129
sS'boiling_point'
p167
g137
sS'thermal_conductivity'
p168
g153
sS'velocity_of_sound'
p169
g118
sS'atomic_radius'
p170
g27
(g86
g87
F1.3
tp171
Rp172
(dp173
g91
g27
(g92
g29
Ntp174
Rp175
(dp176
g91
g96
(g97
tp177
Rp178
Vang
p179
I1
ssbsg101
Vlength
p180
sg103
F1.3
sbsS'mineral_hardness'
p181
g133
sS'vickers_hardness'
p182
NsS'refractive_index'
p183
NsS'coefficient_of_linear_thermal_expansion'
p184
g147
sbI1
ssS'allow_negative'
p185
I00
sS'_natoms'
p186
I1
sbsS'_lattice'
p187
g27
(cpymatgen.core.lattice
Lattice
p188
g29
Ntp189
Rp190
(dp191
S'_metric_tensor'
p192
NsS'_matrix'
p193
g40
(g41
(I0
tp194
g43
tp195
Rp196
(I1
(I3
I3
tp197
g50
I00
S'\x00\x00\x00\x00\x00\x00\x00\x00w\xbe\x9f\x1a/\x9d\x06@w\xbe\x9f\x1a/\x9d\x06@w\xbe\x9f\x1a/\x9d\x06@\x00\x00\x00\x00\x00\x00\x00\x00w\xbe\x9f\x1a/\x9d\x06@w\xbe\x9f\x1a/\x9d\x06@w\xbe\x9f\x1a/\x9d\x06@\x00\x00\x00\x00\x00\x00\x00\x00'
p198
tp199
bsS'_angles'
p200
g40
(g41
(I0
tp201
g43
tp202
Rp203
(I1
(I3
tp204
g50
I00
S'\xff\xff\xff\xff\xff\xffM@\xff\xff\xff\xff\xff\xffM@\xff\xff\xff\xff\xff\xffM@'
p205
tp206
bsS'_lengths'
p207
g40
(g41
(I0
tp208
g43
tp209
Rp210
(I1
(I3
tp211
g50
I00
S'\xb2\xea\xb4|$\xfb\x0f@\xb2\xea\xb4|$\xfb\x0f@\xb2\xea\xb4|$\xfb\x0f@'
p212
tp213
bsS'_inv_matrix'
p214
NsbsS'_coords'
p215
g40
(g41
(I0
tp216
g43
tp217
Rp218
(I1
(I3
tp219
g50
I00
S'\x00\x00\x00\x00\x00\x00\x00\x00\x00\x00\x00\x00\x00\x00\x00\x00\x00\x00\x00\x00\x00\x00\x00\x00'
p220
tp221
bsS'_properties'
p222
(dp223
sS'_is_ordered'
p224
I01
sbag27
(g35
g29
Ntp225
Rp226
(dp227
g39
g40
(g41
(I0
tp228
g43
tp229
Rp230
(I1
(I3
tp231
g50
I00
S'\x00\x00\x00\x00\x00\x00\xd0?\x00\x00\x00\x00\x00\x00\xd0?\x00\x00\x00\x00\x00\x00\xd0?'
p232
tp233
bsg55
g27
(g56
g29
Ntp234
Rp235
(dp236
g60
(dp237
g27
(g62
g29
Ntp238
Rp239
(dp240
S'superconduction_temperature'
p241
NsS'density_of_solid'
p242
V5727 kg m<sup>-3</sup>
p243
sS'molar_volume'
p244
V12.95 cm<sup>3</sup>
p245
sS'bulk_modulus'
p246
V22 GPa
p247
sS'electronic_structure'
p248
V[Ar].3d<sup>10</sup>.4s<sup>2</sup>.4p<sup>3</sup>
p249
sS'critical_temperature'
p250
V1700 K
p251
sS'melting_point'
p252
V1090 K
p253
sS'mendeleev_no'
p254
I89
sS'brinell_hardness'
p255
V1440 MN m<sup>-2</sup>
p256
sg81
I33
sg82
F2.18
sS'poissons_ratio'
p257
NsS'atomic_radius_calculated'
p258
F1.14
sg85
g27
(g86
g87
F74.9216
tp259
Rp260
(dp261
g91
g27
(g92
g29
Ntp262
Rp263
(dp264
g91
g96
(g97
tp265
Rp266
g100
I1
ssbsg101
g102
sg103
F74.9216
sbsS'reflectivity'
p267
NsS'electrical_resistivity'
p268
V33 10<sup>-8</sup> &Omega; m
p269
sS'liquid_range'
p270
V203 K
p271
sS'rigidity_modulus'
p272
Nsg110
VAs
p273
sS'van_der_waals_radius'
p274
F1.85
sg113
(dp275
VElectrical resistivity
p276
g269
sVElectronic structure
p277
g249
sVVelocity of sound
p278
Vno data m s<sup>-1</sup>
p279
sVOxidation states
p280
(lp281
I-3
aI2
aI3
aI5
asVReflectivity
p282
Vno data %
p283
sVPoissons ratio
p284
Vno data
p285
sVMolar volume
p286
g245
sVVan der waals radius
p287
F1.85
sg127
F2.18
sVName
p288
VArsenic
p289
sVBulk modulus
p290
g247
sVMineral hardness
p291
V3.5
p292
sVAtomic mass
p293
F74.9216
sVAtomic no
p294
I33
sVBoiling point
p295
V887 K
p296
sVCommon oxidation states
p297
(lp298
I-3
aI3
aI5
asVBrinell hardness
p299
g256
sVDensity of solid
p300
g243
sVCritical temperature
p301
g251
sVMelting point
p302
g253
sVMendeleev no
p303
I89
sVCoefficient of linear thermal expansion
p304
Vno data x10<sup>-6</sup>K<sup>-1</sup>
p305
sVYoungs modulus
p306
V8 GPa
p307
sVRigidity modulus
p308
Vno data GPa
p309
sVThermal conductivity
p310
V50 W m<sup>-1</sup> K<sup>-1</sup>
p311
sVLiquid range
p312
g271
sVAtomic radius calculated
p313
F1.14
sVVickers hardness
p314
Vno data MN m<sup>-2</sup>
p315
sVSuperconduction temperature
p316
Vno data K
p317
sVRefractive index
p318
V1.001552
p319
sVIonic radii
p320
(dp321
g163
F0.72
sV5
p322
F0.6
ssVAtomic radius
p323
F1.15
ssS'youngs_modulus'
p324
g307
sS'name'
p325
g289
sS'boiling_point'
p326
g296
sS'thermal_conductivity'
p327
g311
sS'velocity_of_sound'
p328
Nsg170
g27
(g86
g87
F1.15
tp329
Rp330
(dp331
g91
g27
(g92
g29
Ntp332
Rp333
(dp334
g91
g96
(g97
tp335
Rp336
g179
I1
ssbsg101
g180
sg103
F1.15
sbsS'mineral_hardness'
p337
g292
sS'vickers_hardness'
p338
NsS'refractive_index'
p339
g319
sS'coefficient_of_linear_thermal_expansion'
p340
NsbI1
ssg185
I00
sg186
I1
sbsg187
g190
sg215
g40
(g41
(I0
tp341
g43
tp342
Rp343
(I1
(I3
tp344
g50
I00
S'w\xbe\x9f\x1a/\x9d\xf6?w\xbe\x9f\x1a/\x9d\xf6?w\xbe\x9f\x1a/\x9d\xf6?'
p345
tp346
bsg222
(dp347
sg224
I01
sbasg187
g190
sbs.